
bufbomb:     file format elf32-i386


Disassembly of section .init:

080487a4 <_init>:
 80487a4:	55                   	push   %ebp
 80487a5:	89 e5                	mov    %esp,%ebp
 80487a7:	53                   	push   %ebx
 80487a8:	83 ec 04             	sub    $0x4,%esp
 80487ab:	e8 00 00 00 00       	call   80487b0 <_init+0xc>
 80487b0:	5b                   	pop    %ebx
 80487b1:	81 c3 44 38 00 00    	add    $0x3844,%ebx
 80487b7:	8b 93 fc ff ff ff    	mov    -0x4(%ebx),%edx
 80487bd:	85 d2                	test   %edx,%edx
 80487bf:	74 05                	je     80487c6 <_init+0x22>
 80487c1:	e8 9e 00 00 00       	call   8048864 <__gmon_start__@plt>
 80487c6:	e8 e5 02 00 00       	call   8048ab0 <frame_dummy>
 80487cb:	e8 30 18 00 00       	call   804a000 <__do_global_ctors_aux>
 80487d0:	58                   	pop    %eax
 80487d1:	5b                   	pop    %ebx
 80487d2:	c9                   	leave  
 80487d3:	c3                   	ret    

Disassembly of section .plt:

080487d4 <__errno_location@plt-0x10>:
 80487d4:	ff 35 f8 bf 04 08    	pushl  0x804bff8
 80487da:	ff 25 fc bf 04 08    	jmp    *0x804bffc
 80487e0:	00 00                	add    %al,(%eax)
	...

080487e4 <__errno_location@plt>:
 80487e4:	ff 25 00 c0 04 08    	jmp    *0x804c000
 80487ea:	68 00 00 00 00       	push   $0x0
 80487ef:	e9 e0 ff ff ff       	jmp    80487d4 <_init+0x30>

080487f4 <srand@plt>:
 80487f4:	ff 25 04 c0 04 08    	jmp    *0x804c004
 80487fa:	68 08 00 00 00       	push   $0x8
 80487ff:	e9 d0 ff ff ff       	jmp    80487d4 <_init+0x30>

08048804 <connect@plt>:
 8048804:	ff 25 08 c0 04 08    	jmp    *0x804c008
 804880a:	68 10 00 00 00       	push   $0x10
 804880f:	e9 c0 ff ff ff       	jmp    80487d4 <_init+0x30>

08048814 <mmap@plt>:
 8048814:	ff 25 0c c0 04 08    	jmp    *0x804c00c
 804881a:	68 18 00 00 00       	push   $0x18
 804881f:	e9 b0 ff ff ff       	jmp    80487d4 <_init+0x30>

08048824 <getpid@plt>:
 8048824:	ff 25 10 c0 04 08    	jmp    *0x804c010
 804882a:	68 20 00 00 00       	push   $0x20
 804882f:	e9 a0 ff ff ff       	jmp    80487d4 <_init+0x30>

08048834 <random@plt>:
 8048834:	ff 25 14 c0 04 08    	jmp    *0x804c014
 804883a:	68 28 00 00 00       	push   $0x28
 804883f:	e9 90 ff ff ff       	jmp    80487d4 <_init+0x30>

08048844 <__fprintf_chk@plt>:
 8048844:	ff 25 18 c0 04 08    	jmp    *0x804c018
 804884a:	68 30 00 00 00       	push   $0x30
 804884f:	e9 80 ff ff ff       	jmp    80487d4 <_init+0x30>

08048854 <signal@plt>:
 8048854:	ff 25 1c c0 04 08    	jmp    *0x804c01c
 804885a:	68 38 00 00 00       	push   $0x38
 804885f:	e9 70 ff ff ff       	jmp    80487d4 <_init+0x30>

08048864 <__gmon_start__@plt>:
 8048864:	ff 25 20 c0 04 08    	jmp    *0x804c020
 804886a:	68 40 00 00 00       	push   $0x40
 804886f:	e9 60 ff ff ff       	jmp    80487d4 <_init+0x30>

08048874 <__isoc99_sscanf@plt>:
 8048874:	ff 25 24 c0 04 08    	jmp    *0x804c024
 804887a:	68 48 00 00 00       	push   $0x48
 804887f:	e9 50 ff ff ff       	jmp    80487d4 <_init+0x30>

08048884 <__printf_chk@plt>:
 8048884:	ff 25 28 c0 04 08    	jmp    *0x804c028
 804888a:	68 50 00 00 00       	push   $0x50
 804888f:	e9 40 ff ff ff       	jmp    80487d4 <_init+0x30>

08048894 <calloc@plt>:
 8048894:	ff 25 2c c0 04 08    	jmp    *0x804c02c
 804889a:	68 58 00 00 00       	push   $0x58
 804889f:	e9 30 ff ff ff       	jmp    80487d4 <_init+0x30>

080488a4 <write@plt>:
 80488a4:	ff 25 30 c0 04 08    	jmp    *0x804c030
 80488aa:	68 60 00 00 00       	push   $0x60
 80488af:	e9 20 ff ff ff       	jmp    80487d4 <_init+0x30>

080488b4 <memset@plt>:
 80488b4:	ff 25 34 c0 04 08    	jmp    *0x804c034
 80488ba:	68 68 00 00 00       	push   $0x68
 80488bf:	e9 10 ff ff ff       	jmp    80487d4 <_init+0x30>

080488c4 <__libc_start_main@plt>:
 80488c4:	ff 25 38 c0 04 08    	jmp    *0x804c038
 80488ca:	68 70 00 00 00       	push   $0x70
 80488cf:	e9 00 ff ff ff       	jmp    80487d4 <_init+0x30>

080488d4 <_IO_getc@plt>:
 80488d4:	ff 25 3c c0 04 08    	jmp    *0x804c03c
 80488da:	68 78 00 00 00       	push   $0x78
 80488df:	e9 f0 fe ff ff       	jmp    80487d4 <_init+0x30>

080488e4 <__memcpy_chk@plt>:
 80488e4:	ff 25 40 c0 04 08    	jmp    *0x804c040
 80488ea:	68 80 00 00 00       	push   $0x80
 80488ef:	e9 e0 fe ff ff       	jmp    80487d4 <_init+0x30>

080488f4 <read@plt>:
 80488f4:	ff 25 44 c0 04 08    	jmp    *0x804c044
 80488fa:	68 88 00 00 00       	push   $0x88
 80488ff:	e9 d0 fe ff ff       	jmp    80487d4 <_init+0x30>

08048904 <socket@plt>:
 8048904:	ff 25 48 c0 04 08    	jmp    *0x804c048
 804890a:	68 90 00 00 00       	push   $0x90
 804890f:	e9 c0 fe ff ff       	jmp    80487d4 <_init+0x30>

08048914 <getopt@plt>:
 8048914:	ff 25 4c c0 04 08    	jmp    *0x804c04c
 804891a:	68 98 00 00 00       	push   $0x98
 804891f:	e9 b0 fe ff ff       	jmp    80487d4 <_init+0x30>

08048924 <alarm@plt>:
 8048924:	ff 25 50 c0 04 08    	jmp    *0x804c050
 804892a:	68 a0 00 00 00       	push   $0xa0
 804892f:	e9 a0 fe ff ff       	jmp    80487d4 <_init+0x30>

08048934 <strcpy@plt>:
 8048934:	ff 25 54 c0 04 08    	jmp    *0x804c054
 804893a:	68 a8 00 00 00       	push   $0xa8
 804893f:	e9 90 fe ff ff       	jmp    80487d4 <_init+0x30>

08048944 <strcasecmp@plt>:
 8048944:	ff 25 58 c0 04 08    	jmp    *0x804c058
 804894a:	68 b0 00 00 00       	push   $0xb0
 804894f:	e9 80 fe ff ff       	jmp    80487d4 <_init+0x30>

08048954 <srandom@plt>:
 8048954:	ff 25 5c c0 04 08    	jmp    *0x804c05c
 804895a:	68 b8 00 00 00       	push   $0xb8
 804895f:	e9 70 fe ff ff       	jmp    80487d4 <_init+0x30>

08048964 <close@plt>:
 8048964:	ff 25 60 c0 04 08    	jmp    *0x804c060
 804896a:	68 c0 00 00 00       	push   $0xc0
 804896f:	e9 60 fe ff ff       	jmp    80487d4 <_init+0x30>

08048974 <fwrite@plt>:
 8048974:	ff 25 64 c0 04 08    	jmp    *0x804c064
 804897a:	68 c8 00 00 00       	push   $0xc8
 804897f:	e9 50 fe ff ff       	jmp    80487d4 <_init+0x30>

08048984 <gethostname@plt>:
 8048984:	ff 25 68 c0 04 08    	jmp    *0x804c068
 804898a:	68 d0 00 00 00       	push   $0xd0
 804898f:	e9 40 fe ff ff       	jmp    80487d4 <_init+0x30>

08048994 <puts@plt>:
 8048994:	ff 25 6c c0 04 08    	jmp    *0x804c06c
 804899a:	68 d8 00 00 00       	push   $0xd8
 804899f:	e9 30 fe ff ff       	jmp    80487d4 <_init+0x30>

080489a4 <rand@plt>:
 80489a4:	ff 25 70 c0 04 08    	jmp    *0x804c070
 80489aa:	68 e0 00 00 00       	push   $0xe0
 80489af:	e9 20 fe ff ff       	jmp    80487d4 <_init+0x30>

080489b4 <__sprintf_chk@plt>:
 80489b4:	ff 25 74 c0 04 08    	jmp    *0x804c074
 80489ba:	68 e8 00 00 00       	push   $0xe8
 80489bf:	e9 10 fe ff ff       	jmp    80487d4 <_init+0x30>

080489c4 <munmap@plt>:
 80489c4:	ff 25 78 c0 04 08    	jmp    *0x804c078
 80489ca:	68 f0 00 00 00       	push   $0xf0
 80489cf:	e9 00 fe ff ff       	jmp    80487d4 <_init+0x30>

080489d4 <__memmove_chk@plt>:
 80489d4:	ff 25 7c c0 04 08    	jmp    *0x804c07c
 80489da:	68 f8 00 00 00       	push   $0xf8
 80489df:	e9 f0 fd ff ff       	jmp    80487d4 <_init+0x30>

080489e4 <gethostbyname@plt>:
 80489e4:	ff 25 80 c0 04 08    	jmp    *0x804c080
 80489ea:	68 00 01 00 00       	push   $0x100
 80489ef:	e9 e0 fd ff ff       	jmp    80487d4 <_init+0x30>

080489f4 <__strdup@plt>:
 80489f4:	ff 25 84 c0 04 08    	jmp    *0x804c084
 80489fa:	68 08 01 00 00       	push   $0x108
 80489ff:	e9 d0 fd ff ff       	jmp    80487d4 <_init+0x30>

08048a04 <exit@plt>:
 8048a04:	ff 25 88 c0 04 08    	jmp    *0x804c088
 8048a0a:	68 10 01 00 00       	push   $0x110
 8048a0f:	e9 c0 fd ff ff       	jmp    80487d4 <_init+0x30>

Disassembly of section .text:

08048a20 <_start>:
 8048a20:	31 ed                	xor    %ebp,%ebp
 8048a22:	5e                   	pop    %esi
 8048a23:	89 e1                	mov    %esp,%ecx
 8048a25:	83 e4 f0             	and    $0xfffffff0,%esp
 8048a28:	50                   	push   %eax
 8048a29:	54                   	push   %esp
 8048a2a:	52                   	push   %edx
 8048a2b:	68 f0 9f 04 08       	push   $0x8049ff0
 8048a30:	68 90 9f 04 08       	push   $0x8049f90
 8048a35:	51                   	push   %ecx
 8048a36:	56                   	push   %esi
 8048a37:	68 c5 8f 04 08       	push   $0x8048fc5
 8048a3c:	e8 83 fe ff ff       	call   80488c4 <__libc_start_main@plt>
 8048a41:	f4                   	hlt    
 8048a42:	90                   	nop
 8048a43:	90                   	nop
 8048a44:	90                   	nop
 8048a45:	90                   	nop
 8048a46:	90                   	nop
 8048a47:	90                   	nop
 8048a48:	90                   	nop
 8048a49:	90                   	nop
 8048a4a:	90                   	nop
 8048a4b:	90                   	nop
 8048a4c:	90                   	nop
 8048a4d:	90                   	nop
 8048a4e:	90                   	nop
 8048a4f:	90                   	nop

08048a50 <__do_global_dtors_aux>:
 8048a50:	55                   	push   %ebp
 8048a51:	89 e5                	mov    %esp,%ebp
 8048a53:	53                   	push   %ebx
 8048a54:	83 ec 04             	sub    $0x4,%esp
 8048a57:	80 3d 04 d1 04 08 00 	cmpb   $0x0,0x804d104
 8048a5e:	75 3f                	jne    8048a9f <__do_global_dtors_aux+0x4f>
 8048a60:	a1 08 d1 04 08       	mov    0x804d108,%eax
 8048a65:	bb 20 bf 04 08       	mov    $0x804bf20,%ebx
 8048a6a:	81 eb 1c bf 04 08    	sub    $0x804bf1c,%ebx
 8048a70:	c1 fb 02             	sar    $0x2,%ebx
 8048a73:	83 eb 01             	sub    $0x1,%ebx
 8048a76:	39 d8                	cmp    %ebx,%eax
 8048a78:	73 1e                	jae    8048a98 <__do_global_dtors_aux+0x48>
 8048a7a:	8d b6 00 00 00 00    	lea    0x0(%esi),%esi
 8048a80:	83 c0 01             	add    $0x1,%eax
 8048a83:	a3 08 d1 04 08       	mov    %eax,0x804d108
 8048a88:	ff 14 85 1c bf 04 08 	call   *0x804bf1c(,%eax,4)
 8048a8f:	a1 08 d1 04 08       	mov    0x804d108,%eax
 8048a94:	39 d8                	cmp    %ebx,%eax
 8048a96:	72 e8                	jb     8048a80 <__do_global_dtors_aux+0x30>
 8048a98:	c6 05 04 d1 04 08 01 	movb   $0x1,0x804d104
 8048a9f:	83 c4 04             	add    $0x4,%esp
 8048aa2:	5b                   	pop    %ebx
 8048aa3:	5d                   	pop    %ebp
 8048aa4:	c3                   	ret    
 8048aa5:	8d 74 26 00          	lea    0x0(%esi,%eiz,1),%esi
 8048aa9:	8d bc 27 00 00 00 00 	lea    0x0(%edi,%eiz,1),%edi

08048ab0 <frame_dummy>:
 8048ab0:	55                   	push   %ebp
 8048ab1:	89 e5                	mov    %esp,%ebp
 8048ab3:	83 ec 18             	sub    $0x18,%esp
 8048ab6:	a1 24 bf 04 08       	mov    0x804bf24,%eax
 8048abb:	85 c0                	test   %eax,%eax
 8048abd:	74 12                	je     8048ad1 <frame_dummy+0x21>
 8048abf:	b8 00 00 00 00       	mov    $0x0,%eax
 8048ac4:	85 c0                	test   %eax,%eax
 8048ac6:	74 09                	je     8048ad1 <frame_dummy+0x21>
 8048ac8:	c7 04 24 24 bf 04 08 	movl   $0x804bf24,(%esp)
 8048acf:	ff d0                	call   *%eax
 8048ad1:	c9                   	leave  
 8048ad2:	c3                   	ret    
 8048ad3:	90                   	nop
 8048ad4:	90                   	nop
 8048ad5:	90                   	nop
 8048ad6:	90                   	nop
 8048ad7:	90                   	nop
 8048ad8:	90                   	nop
 8048ad9:	90                   	nop
 8048ada:	90                   	nop
 8048adb:	90                   	nop
 8048adc:	90                   	nop
 8048add:	90                   	nop
 8048ade:	90                   	nop
 8048adf:	90                   	nop

08048ae0 <usage>:
 8048ae0:	55                   	push   %ebp
 8048ae1:	89 e5                	mov    %esp,%ebp
 8048ae3:	83 ec 18             	sub    $0x18,%esp
 8048ae6:	89 44 24 08          	mov    %eax,0x8(%esp)
 8048aea:	c7 44 24 04 50 a0 04 	movl   $0x804a050,0x4(%esp)
 8048af1:	08 
 8048af2:	c7 04 24 01 00 00 00 	movl   $0x1,(%esp)
 8048af9:	e8 86 fd ff ff       	call   8048884 <__printf_chk@plt>
 8048afe:	c7 04 24 6e a0 04 08 	movl   $0x804a06e,(%esp)
 8048b05:	e8 8a fe ff ff       	call   8048994 <puts@plt>
 8048b0a:	c7 04 24 84 a0 04 08 	movl   $0x804a084,(%esp)
 8048b11:	e8 7e fe ff ff       	call   8048994 <puts@plt>
 8048b16:	c7 04 24 8c a1 04 08 	movl   $0x804a18c,(%esp)
 8048b1d:	e8 72 fe ff ff       	call   8048994 <puts@plt>
 8048b22:	c7 04 24 c8 a1 04 08 	movl   $0x804a1c8,(%esp)
 8048b29:	e8 66 fe ff ff       	call   8048994 <puts@plt>
 8048b2e:	c7 04 24 00 00 00 00 	movl   $0x0,(%esp)
 8048b35:	e8 ca fe ff ff       	call   8048a04 <exit@plt>

08048b3a <illegalhandler>:
 8048b3a:	55                   	push   %ebp
 8048b3b:	89 e5                	mov    %esp,%ebp
 8048b3d:	83 ec 18             	sub    $0x18,%esp
 8048b40:	c7 04 24 f0 a1 04 08 	movl   $0x804a1f0,(%esp)
 8048b47:	e8 48 fe ff ff       	call   8048994 <puts@plt>
 8048b4c:	c7 04 24 9d a0 04 08 	movl   $0x804a09d,(%esp)
 8048b53:	e8 3c fe ff ff       	call   8048994 <puts@plt>
 8048b58:	c7 04 24 00 00 00 00 	movl   $0x0,(%esp)
 8048b5f:	e8 a0 fe ff ff       	call   8048a04 <exit@plt>

08048b64 <seghandler>:
 8048b64:	55                   	push   %ebp
 8048b65:	89 e5                	mov    %esp,%ebp
 8048b67:	83 ec 18             	sub    $0x18,%esp
 8048b6a:	c7 04 24 1c a2 04 08 	movl   $0x804a21c,(%esp)
 8048b71:	e8 1e fe ff ff       	call   8048994 <puts@plt>
 8048b76:	c7 04 24 9d a0 04 08 	movl   $0x804a09d,(%esp)
 8048b7d:	e8 12 fe ff ff       	call   8048994 <puts@plt>
 8048b82:	c7 04 24 00 00 00 00 	movl   $0x0,(%esp)
 8048b89:	e8 76 fe ff ff       	call   8048a04 <exit@plt>

08048b8e <bushandler>:
 8048b8e:	55                   	push   %ebp
 8048b8f:	89 e5                	mov    %esp,%ebp
 8048b91:	83 ec 18             	sub    $0x18,%esp
 8048b94:	c7 04 24 44 a2 04 08 	movl   $0x804a244,(%esp)
 8048b9b:	e8 f4 fd ff ff       	call   8048994 <puts@plt>
 8048ba0:	c7 04 24 9d a0 04 08 	movl   $0x804a09d,(%esp)
 8048ba7:	e8 e8 fd ff ff       	call   8048994 <puts@plt>
 8048bac:	c7 04 24 00 00 00 00 	movl   $0x0,(%esp)
 8048bb3:	e8 4c fe ff ff       	call   8048a04 <exit@plt>

08048bb8 <smoke>:
 8048bb8:	55                   	push   %ebp
 8048bb9:	89 e5                	mov    %esp,%ebp
 8048bbb:	83 ec 18             	sub    $0x18,%esp
 8048bbe:	c7 04 24 b3 a0 04 08 	movl   $0x804a0b3,(%esp)
 8048bc5:	e8 ca fd ff ff       	call   8048994 <puts@plt>
 8048bca:	c7 04 24 00 00 00 00 	movl   $0x0,(%esp)
 8048bd1:	e8 11 07 00 00       	call   80492e7 <validate>
 8048bd6:	c7 04 24 00 00 00 00 	movl   $0x0,(%esp)
 8048bdd:	e8 22 fe ff ff       	call   8048a04 <exit@plt>

08048be2 <fizz>:
 8048be2:	55                   	push   %ebp
 8048be3:	89 e5                	mov    %esp,%ebp
 8048be5:	83 ec 18             	sub    $0x18,%esp
 8048be8:	8b 45 08             	mov    0x8(%ebp),%eax
 8048beb:	3b 05 18 d1 04 08    	cmp    0x804d118,%eax
 8048bf1:	75 26                	jne    8048c19 <fizz+0x37>
 8048bf3:	89 44 24 08          	mov    %eax,0x8(%esp)
 8048bf7:	c7 44 24 04 ce a0 04 	movl   $0x804a0ce,0x4(%esp)
 8048bfe:	08 
 8048bff:	c7 04 24 01 00 00 00 	movl   $0x1,(%esp)
 8048c06:	e8 79 fc ff ff       	call   8048884 <__printf_chk@plt>
 8048c0b:	c7 04 24 01 00 00 00 	movl   $0x1,(%esp)
 8048c12:	e8 d0 06 00 00       	call   80492e7 <validate>
 8048c17:	eb 18                	jmp    8048c31 <fizz+0x4f>
 8048c19:	89 44 24 08          	mov    %eax,0x8(%esp)
 8048c1d:	c7 44 24 04 64 a2 04 	movl   $0x804a264,0x4(%esp)
 8048c24:	08 
 8048c25:	c7 04 24 01 00 00 00 	movl   $0x1,(%esp)
 8048c2c:	e8 53 fc ff ff       	call   8048884 <__printf_chk@plt>
 8048c31:	c7 04 24 00 00 00 00 	movl   $0x0,(%esp)
 8048c38:	e8 c7 fd ff ff       	call   8048a04 <exit@plt>

08048c3d <bang>:
 8048c3d:	55                   	push   %ebp
 8048c3e:	89 e5                	mov    %esp,%ebp
 8048c40:	83 ec 18             	sub    $0x18,%esp
 8048c43:	a1 20 d1 04 08       	mov    0x804d120,%eax
 8048c48:	3b 05 18 d1 04 08    	cmp    0x804d118,%eax
 8048c4e:	75 26                	jne    8048c76 <bang+0x39>
 8048c50:	89 44 24 08          	mov    %eax,0x8(%esp)
 8048c54:	c7 44 24 04 84 a2 04 	movl   $0x804a284,0x4(%esp)
 8048c5b:	08 
 8048c5c:	c7 04 24 01 00 00 00 	movl   $0x1,(%esp)
 8048c63:	e8 1c fc ff ff       	call   8048884 <__printf_chk@plt>
 8048c68:	c7 04 24 02 00 00 00 	movl   $0x2,(%esp)
 8048c6f:	e8 73 06 00 00       	call   80492e7 <validate>
 8048c74:	eb 18                	jmp    8048c8e <bang+0x51>
 8048c76:	89 44 24 08          	mov    %eax,0x8(%esp)
 8048c7a:	c7 44 24 04 ec a0 04 	movl   $0x804a0ec,0x4(%esp)
 8048c81:	08 
 8048c82:	c7 04 24 01 00 00 00 	movl   $0x1,(%esp)
 8048c89:	e8 f6 fb ff ff       	call   8048884 <__printf_chk@plt>
 8048c8e:	c7 04 24 00 00 00 00 	movl   $0x0,(%esp)
 8048c95:	e8 6a fd ff ff       	call   8048a04 <exit@plt>

08048c9a <Gets>:
 8048c9a:	55                   	push   %ebp
 8048c9b:	89 e5                	mov    %esp,%ebp
 8048c9d:	57                   	push   %edi
 8048c9e:	56                   	push   %esi
 8048c9f:	53                   	push   %ebx
 8048ca0:	83 ec 2c             	sub    $0x2c,%esp
 8048ca3:	8b 75 08             	mov    0x8(%ebp),%esi
 8048ca6:	c7 05 24 d1 04 08 00 	movl   $0x0,0x804d124
 8048cad:	00 00 00 
 8048cb0:	89 f3                	mov    %esi,%ebx
 8048cb2:	eb 55                	jmp    8048d09 <Gets+0x6f>
 8048cb4:	88 45 d8             	mov    %al,-0x28(%ebp)
 8048cb7:	88 03                	mov    %al,(%ebx)
 8048cb9:	83 c3 01             	add    $0x1,%ebx
 8048cbc:	a1 24 d1 04 08       	mov    0x804d124,%eax
 8048cc1:	3d ff 03 00 00       	cmp    $0x3ff,%eax
 8048cc6:	7f 41                	jg     8048d09 <Gets+0x6f>
 8048cc8:	8d 14 40             	lea    (%eax,%eax,2),%edx
 8048ccb:	0f b6 4d d8          	movzbl -0x28(%ebp),%ecx
 8048ccf:	c0 f9 04             	sar    $0x4,%cl
 8048cd2:	89 cf                	mov    %ecx,%edi
 8048cd4:	83 e7 0f             	and    $0xf,%edi
 8048cd7:	0f b6 bf 94 a3 04 08 	movzbl 0x804a394(%edi),%edi
 8048cde:	89 f9                	mov    %edi,%ecx
 8048ce0:	88 8a 40 d1 04 08    	mov    %cl,0x804d140(%edx)
 8048ce6:	0f b6 4d d8          	movzbl -0x28(%ebp),%ecx
 8048cea:	83 e1 0f             	and    $0xf,%ecx
 8048ced:	0f b6 89 94 a3 04 08 	movzbl 0x804a394(%ecx),%ecx
 8048cf4:	88 8a 41 d1 04 08    	mov    %cl,0x804d141(%edx)
 8048cfa:	c6 82 42 d1 04 08 20 	movb   $0x20,0x804d142(%edx)
 8048d01:	83 c0 01             	add    $0x1,%eax
 8048d04:	a3 24 d1 04 08       	mov    %eax,0x804d124
 8048d09:	a1 14 d1 04 08       	mov    0x804d114,%eax
 8048d0e:	89 04 24             	mov    %eax,(%esp)
 8048d11:	e8 be fb ff ff       	call   80488d4 <_IO_getc@plt>
 8048d16:	83 f8 ff             	cmp    $0xffffffff,%eax
 8048d19:	74 05                	je     8048d20 <Gets+0x86>
 8048d1b:	83 f8 0a             	cmp    $0xa,%eax
 8048d1e:	75 94                	jne    8048cb4 <Gets+0x1a>
 8048d20:	c6 03 00             	movb   $0x0,(%ebx)
 8048d23:	a1 24 d1 04 08       	mov    0x804d124,%eax
 8048d28:	c6 84 40 40 d1 04 08 	movb   $0x0,0x804d140(%eax,%eax,2)
 8048d2f:	00 
 8048d30:	89 f0                	mov    %esi,%eax
 8048d32:	83 c4 2c             	add    $0x2c,%esp
 8048d35:	5b                   	pop    %ebx
 8048d36:	5e                   	pop    %esi
 8048d37:	5f                   	pop    %edi
 8048d38:	5d                   	pop    %ebp
 8048d39:	c3                   	ret    

08048d3a <getbufn>:
 8048d3a:	55                   	push   %ebp
 8048d3b:	89 e5                	mov    %esp,%ebp
 8048d3d:	81 ec 18 02 00 00    	sub    $0x218,%esp
 8048d43:	8d 85 f8 fd ff ff    	lea    -0x208(%ebp),%eax
 8048d49:	89 04 24             	mov    %eax,(%esp)
 8048d4c:	e8 49 ff ff ff       	call   8048c9a <Gets>
 8048d51:	b8 01 00 00 00       	mov    $0x1,%eax
 8048d56:	c9                   	leave  
 8048d57:	c3                   	ret    

08048d58 <testn>:
 8048d58:	55                   	push   %ebp
 8048d59:	89 e5                	mov    %esp,%ebp
 8048d5b:	83 ec 28             	sub    $0x28,%esp
 8048d5e:	c7 45 f4 ef be ad de 	movl   $0xdeadbeef,-0xc(%ebp)
 8048d65:	e8 d0 ff ff ff       	call   8048d3a <getbufn>
 8048d6a:	8b 55 f4             	mov    -0xc(%ebp),%edx
 8048d6d:	81 fa ef be ad de    	cmp    $0xdeadbeef,%edx
 8048d73:	74 0e                	je     8048d83 <testn+0x2b>
 8048d75:	c7 04 24 ac a2 04 08 	movl   $0x804a2ac,(%esp)
 8048d7c:	e8 13 fc ff ff       	call   8048994 <puts@plt>
 8048d81:	eb 46                	jmp    8048dc9 <testn+0x71>
 8048d83:	3b 05 18 d1 04 08    	cmp    0x804d118,%eax
 8048d89:	75 26                	jne    8048db1 <testn+0x59>
 8048d8b:	89 44 24 08          	mov    %eax,0x8(%esp)
 8048d8f:	c7 44 24 04 d8 a2 04 	movl   $0x804a2d8,0x4(%esp)
 8048d96:	08 
 8048d97:	c7 04 24 01 00 00 00 	movl   $0x1,(%esp)
 8048d9e:	e8 e1 fa ff ff       	call   8048884 <__printf_chk@plt>
 8048da3:	c7 04 24 04 00 00 00 	movl   $0x4,(%esp)
 8048daa:	e8 38 05 00 00       	call   80492e7 <validate>
 8048daf:	eb 18                	jmp    8048dc9 <testn+0x71>
 8048db1:	89 44 24 08          	mov    %eax,0x8(%esp)
 8048db5:	c7 44 24 04 0a a1 04 	movl   $0x804a10a,0x4(%esp)
 8048dbc:	08 
 8048dbd:	c7 04 24 01 00 00 00 	movl   $0x1,(%esp)
 8048dc4:	e8 bb fa ff ff       	call   8048884 <__printf_chk@plt>
 8048dc9:	c9                   	leave  
 8048dca:	c3                   	ret    

08048dcb <getbuf>:
 8048dcb:	55                   	push   %ebp
 8048dcc:	89 e5                	mov    %esp,%ebp
 8048dce:	83 ec 38             	sub    $0x38,%esp
 8048dd1:	8d 45 d8             	lea    -0x28(%ebp),%eax
 8048dd4:	89 04 24             	mov    %eax,(%esp)
 8048dd7:	e8 be fe ff ff       	call   8048c9a <Gets>
 8048ddc:	b8 01 00 00 00       	mov    $0x1,%eax
 8048de1:	c9                   	leave  
 8048de2:	c3                   	ret    

08048de3 <uniqueval>:
 8048de3:	55                   	push   %ebp
 8048de4:	89 e5                	mov    %esp,%ebp
 8048de6:	83 ec 18             	sub    $0x18,%esp
 8048de9:	e8 36 fa ff ff       	call   8048824 <getpid@plt>
 8048dee:	89 04 24             	mov    %eax,(%esp)
 8048df1:	e8 5e fb ff ff       	call   8048954 <srandom@plt>
 8048df6:	e8 39 fa ff ff       	call   8048834 <random@plt>
 8048dfb:	c9                   	leave  
 8048dfc:	c3                   	ret    

08048dfd <test>:
 8048dfd:	55                   	push   %ebp
 8048dfe:	89 e5                	mov    %esp,%ebp
 8048e00:	53                   	push   %ebx
 8048e01:	83 ec 24             	sub    $0x24,%esp
 8048e04:	e8 da ff ff ff       	call   8048de3 <uniqueval>
 8048e09:	89 45 f4             	mov    %eax,-0xc(%ebp)
 8048e0c:	e8 ba ff ff ff       	call   8048dcb <getbuf>
 8048e11:	89 c3                	mov    %eax,%ebx
 8048e13:	e8 cb ff ff ff       	call   8048de3 <uniqueval>
 8048e18:	8b 55 f4             	mov    -0xc(%ebp),%edx
 8048e1b:	39 d0                	cmp    %edx,%eax
 8048e1d:	74 0e                	je     8048e2d <test+0x30>
 8048e1f:	c7 04 24 ac a2 04 08 	movl   $0x804a2ac,(%esp)
 8048e26:	e8 69 fb ff ff       	call   8048994 <puts@plt>
 8048e2b:	eb 46                	jmp    8048e73 <test+0x76>
 8048e2d:	3b 1d 18 d1 04 08    	cmp    0x804d118,%ebx
 8048e33:	75 26                	jne    8048e5b <test+0x5e>
 8048e35:	89 5c 24 08          	mov    %ebx,0x8(%esp)
 8048e39:	c7 44 24 04 26 a1 04 	movl   $0x804a126,0x4(%esp)
 8048e40:	08 
 8048e41:	c7 04 24 01 00 00 00 	movl   $0x1,(%esp)
 8048e48:	e8 37 fa ff ff       	call   8048884 <__printf_chk@plt>
 8048e4d:	c7 04 24 03 00 00 00 	movl   $0x3,(%esp)
 8048e54:	e8 8e 04 00 00       	call   80492e7 <validate>
 8048e59:	eb 18                	jmp    8048e73 <test+0x76>
 8048e5b:	89 5c 24 08          	mov    %ebx,0x8(%esp)
 8048e5f:	c7 44 24 04 43 a1 04 	movl   $0x804a143,0x4(%esp)
 8048e66:	08 
 8048e67:	c7 04 24 01 00 00 00 	movl   $0x1,(%esp)
 8048e6e:	e8 11 fa ff ff       	call   8048884 <__printf_chk@plt>
 8048e73:	83 c4 24             	add    $0x24,%esp
 8048e76:	5b                   	pop    %ebx
 8048e77:	5d                   	pop    %ebp
 8048e78:	c3                   	ret    

08048e79 <launch>:
 8048e79:	55                   	push   %ebp
 8048e7a:	89 e5                	mov    %esp,%ebp
 8048e7c:	53                   	push   %ebx
 8048e7d:	83 ec 54             	sub    $0x54,%esp
 8048e80:	89 c3                	mov    %eax,%ebx
 8048e82:	8d 45 b8             	lea    -0x48(%ebp),%eax
 8048e85:	25 f0 3f 00 00       	and    $0x3ff0,%eax
 8048e8a:	8d 54 10 1e          	lea    0x1e(%eax,%edx,1),%edx
 8048e8e:	83 e2 f0             	and    $0xfffffff0,%edx
 8048e91:	29 d4                	sub    %edx,%esp
 8048e93:	8d 54 24 1b          	lea    0x1b(%esp),%edx
 8048e97:	83 e2 f0             	and    $0xfffffff0,%edx
 8048e9a:	89 44 24 08          	mov    %eax,0x8(%esp)
 8048e9e:	c7 44 24 04 f4 00 00 	movl   $0xf4,0x4(%esp)
 8048ea5:	00 
 8048ea6:	89 14 24             	mov    %edx,(%esp)
 8048ea9:	e8 06 fa ff ff       	call   80488b4 <memset@plt>
 8048eae:	c7 44 24 04 5e a1 04 	movl   $0x804a15e,0x4(%esp)
 8048eb5:	08 
 8048eb6:	c7 04 24 01 00 00 00 	movl   $0x1,(%esp)
 8048ebd:	e8 c2 f9 ff ff       	call   8048884 <__printf_chk@plt>
 8048ec2:	85 db                	test   %ebx,%ebx
 8048ec4:	74 0c                	je     8048ed2 <launch+0x59>
 8048ec6:	e8 8d fe ff ff       	call   8048d58 <testn>
 8048ecb:	90                   	nop
 8048ecc:	8d 74 26 00          	lea    0x0(%esi,%eiz,1),%esi
 8048ed0:	eb 05                	jmp    8048ed7 <launch+0x5e>
 8048ed2:	e8 26 ff ff ff       	call   8048dfd <test>
 8048ed7:	83 3d 1c d1 04 08 00 	cmpl   $0x0,0x804d11c
 8048ede:	75 16                	jne    8048ef6 <launch+0x7d>
 8048ee0:	c7 04 24 9d a0 04 08 	movl   $0x804a09d,(%esp)
 8048ee7:	e8 a8 fa ff ff       	call   8048994 <puts@plt>
 8048eec:	c7 05 1c d1 04 08 00 	movl   $0x0,0x804d11c
 8048ef3:	00 00 00 
 8048ef6:	8b 5d fc             	mov    -0x4(%ebp),%ebx
 8048ef9:	c9                   	leave  
 8048efa:	c3                   	ret    

08048efb <launcher>:
 8048efb:	55                   	push   %ebp
 8048efc:	89 e5                	mov    %esp,%ebp
 8048efe:	83 ec 28             	sub    $0x28,%esp
 8048f01:	8b 45 08             	mov    0x8(%ebp),%eax
 8048f04:	a3 28 d1 04 08       	mov    %eax,0x804d128
 8048f09:	8b 45 0c             	mov    0xc(%ebp),%eax
 8048f0c:	a3 2c d1 04 08       	mov    %eax,0x804d12c
 8048f11:	c7 44 24 14 00 00 00 	movl   $0x0,0x14(%esp)
 8048f18:	00 
 8048f19:	c7 44 24 10 00 00 00 	movl   $0x0,0x10(%esp)
 8048f20:	00 
 8048f21:	c7 44 24 0c 32 01 00 	movl   $0x132,0xc(%esp)
 8048f28:	00 
 8048f29:	c7 44 24 08 07 00 00 	movl   $0x7,0x8(%esp)
 8048f30:	00 
 8048f31:	c7 44 24 04 00 00 10 	movl   $0x100000,0x4(%esp)
 8048f38:	00 
 8048f39:	c7 04 24 00 60 58 55 	movl   $0x55586000,(%esp)
 8048f40:	e8 cf f8 ff ff       	call   8048814 <mmap@plt>
 8048f45:	3d 00 60 58 55       	cmp    $0x55586000,%eax
 8048f4a:	74 31                	je     8048f7d <launcher+0x82>
 8048f4c:	a1 e0 d0 04 08       	mov    0x804d0e0,%eax
 8048f51:	89 44 24 0c          	mov    %eax,0xc(%esp)
 8048f55:	c7 44 24 08 47 00 00 	movl   $0x47,0x8(%esp)
 8048f5c:	00 
 8048f5d:	c7 44 24 04 01 00 00 	movl   $0x1,0x4(%esp)
 8048f64:	00 
 8048f65:	c7 04 24 f8 a2 04 08 	movl   $0x804a2f8,(%esp)
 8048f6c:	e8 03 fa ff ff       	call   8048974 <fwrite@plt>
 8048f71:	c7 04 24 01 00 00 00 	movl   $0x1,(%esp)
 8048f78:	e8 87 fa ff ff       	call   8048a04 <exit@plt>
 8048f7d:	c7 05 44 dd 04 08 f8 	movl   $0x55685ff8,0x804dd44
 8048f84:	5f 68 55 
 8048f87:	ba f8 5f 68 55       	mov    $0x55685ff8,%edx
 8048f8c:	89 e0                	mov    %esp,%eax
 8048f8e:	89 d4                	mov    %edx,%esp
 8048f90:	89 c2                	mov    %eax,%edx
 8048f92:	89 15 30 d1 04 08    	mov    %edx,0x804d130
 8048f98:	8b 15 2c d1 04 08    	mov    0x804d12c,%edx
 8048f9e:	a1 28 d1 04 08       	mov    0x804d128,%eax
 8048fa3:	e8 d1 fe ff ff       	call   8048e79 <launch>
 8048fa8:	a1 30 d1 04 08       	mov    0x804d130,%eax
 8048fad:	89 c4                	mov    %eax,%esp
 8048faf:	c7 44 24 04 00 00 10 	movl   $0x100000,0x4(%esp)
 8048fb6:	00 
 8048fb7:	c7 04 24 00 60 58 55 	movl   $0x55586000,(%esp)
 8048fbe:	e8 01 fa ff ff       	call   80489c4 <munmap@plt>
 8048fc3:	c9                   	leave  
 8048fc4:	c3                   	ret    

08048fc5 <main>:
 8048fc5:	55                   	push   %ebp
 8048fc6:	89 e5                	mov    %esp,%ebp
 8048fc8:	83 e4 f0             	and    $0xfffffff0,%esp
 8048fcb:	57                   	push   %edi
 8048fcc:	56                   	push   %esi
 8048fcd:	53                   	push   %ebx
 8048fce:	83 ec 24             	sub    $0x24,%esp
 8048fd1:	8b 75 08             	mov    0x8(%ebp),%esi
 8048fd4:	8b 5d 0c             	mov    0xc(%ebp),%ebx
 8048fd7:	c7 44 24 04 64 8b 04 	movl   $0x8048b64,0x4(%esp)
 8048fde:	08 
 8048fdf:	c7 04 24 0b 00 00 00 	movl   $0xb,(%esp)
 8048fe6:	e8 69 f8 ff ff       	call   8048854 <signal@plt>
 8048feb:	c7 44 24 04 8e 8b 04 	movl   $0x8048b8e,0x4(%esp)
 8048ff2:	08 
 8048ff3:	c7 04 24 07 00 00 00 	movl   $0x7,(%esp)
 8048ffa:	e8 55 f8 ff ff       	call   8048854 <signal@plt>
 8048fff:	c7 44 24 04 3a 8b 04 	movl   $0x8048b3a,0x4(%esp)
 8049006:	08 
 8049007:	c7 04 24 04 00 00 00 	movl   $0x4,(%esp)
 804900e:	e8 41 f8 ff ff       	call   8048854 <signal@plt>
 8049013:	a1 e4 d0 04 08       	mov    0x804d0e4,%eax
 8049018:	a3 14 d1 04 08       	mov    %eax,0x804d114
 804901d:	bf 01 00 00 00       	mov    $0x1,%edi
 8049022:	c7 44 24 1c 00 00 00 	movl   $0x0,0x1c(%esp)
 8049029:	00 
 804902a:	eb 7a                	jmp    80490a6 <main+0xe1>
 804902c:	3c 6e                	cmp    $0x6e,%al
 804902e:	74 69                	je     8049099 <main+0xd4>
 8049030:	3c 6e                	cmp    $0x6e,%al
 8049032:	7f 06                	jg     804903a <main+0x75>
 8049034:	3c 68                	cmp    $0x68,%al
 8049036:	75 58                	jne    8049090 <main+0xcb>
 8049038:	eb 0e                	jmp    8049048 <main+0x83>
 804903a:	3c 73                	cmp    $0x73,%al
 804903c:	8d 74 26 00          	lea    0x0(%esi,%eiz,1),%esi
 8049040:	74 36                	je     8049078 <main+0xb3>
 8049042:	3c 75                	cmp    $0x75,%al
 8049044:	75 4a                	jne    8049090 <main+0xcb>
 8049046:	eb 0f                	jmp    8049057 <main+0x92>
 8049048:	8b 03                	mov    (%ebx),%eax
 804904a:	8d b6 00 00 00 00    	lea    0x0(%esi),%esi
 8049050:	e8 8b fa ff ff       	call   8048ae0 <usage>
 8049055:	eb 4f                	jmp    80490a6 <main+0xe1>
 8049057:	a1 00 d1 04 08       	mov    0x804d100,%eax
 804905c:	89 04 24             	mov    %eax,(%esp)
 804905f:	e8 90 f9 ff ff       	call   80489f4 <__strdup@plt>
 8049064:	a3 0c d1 04 08       	mov    %eax,0x804d10c
 8049069:	89 04 24             	mov    %eax,(%esp)
 804906c:	e8 df 0e 00 00       	call   8049f50 <gencookie>
 8049071:	a3 18 d1 04 08       	mov    %eax,0x804d118
 8049076:	eb 2e                	jmp    80490a6 <main+0xe1>
 8049078:	c7 04 24 40 a3 04 08 	movl   $0x804a340,(%esp)
 804907f:	e8 10 f9 ff ff       	call   8048994 <puts@plt>
 8049084:	c7 05 10 d1 04 08 00 	movl   $0x0,0x804d110
 804908b:	00 00 00 
 804908e:	eb 16                	jmp    80490a6 <main+0xe1>
 8049090:	8b 03                	mov    (%ebx),%eax
 8049092:	e8 49 fa ff ff       	call   8048ae0 <usage>
 8049097:	eb 0d                	jmp    80490a6 <main+0xe1>
 8049099:	bf 05 00 00 00       	mov    $0x5,%edi
 804909e:	c7 44 24 1c 01 00 00 	movl   $0x1,0x1c(%esp)
 80490a5:	00 
 80490a6:	c7 44 24 08 6b a1 04 	movl   $0x804a16b,0x8(%esp)
 80490ad:	08 
 80490ae:	89 5c 24 04          	mov    %ebx,0x4(%esp)
 80490b2:	89 34 24             	mov    %esi,(%esp)
 80490b5:	e8 5a f8 ff ff       	call   8048914 <getopt@plt>
 80490ba:	3c ff                	cmp    $0xff,%al
 80490bc:	0f 85 6a ff ff ff    	jne    804902c <main+0x67>
 80490c2:	83 3d 0c d1 04 08 00 	cmpl   $0x0,0x804d10c
 80490c9:	75 21                	jne    80490ec <main+0x127>
 80490cb:	8b 03                	mov    (%ebx),%eax
 80490cd:	89 44 24 08          	mov    %eax,0x8(%esp)
 80490d1:	c7 44 24 04 68 a3 04 	movl   $0x804a368,0x4(%esp)
 80490d8:	08 
 80490d9:	c7 04 24 01 00 00 00 	movl   $0x1,(%esp)
 80490e0:	e8 9f f7 ff ff       	call   8048884 <__printf_chk@plt>
 80490e5:	8b 03                	mov    (%ebx),%eax
 80490e7:	e8 f4 f9 ff ff       	call   8048ae0 <usage>
 80490ec:	e8 cf 00 00 00       	call   80491c0 <initialize_bomb>
 80490f1:	a1 0c d1 04 08       	mov    0x804d10c,%eax
 80490f6:	89 44 24 08          	mov    %eax,0x8(%esp)
 80490fa:	c7 44 24 04 71 a1 04 	movl   $0x804a171,0x4(%esp)
 8049101:	08 
 8049102:	c7 04 24 01 00 00 00 	movl   $0x1,(%esp)
 8049109:	e8 76 f7 ff ff       	call   8048884 <__printf_chk@plt>
 804910e:	a1 18 d1 04 08       	mov    0x804d118,%eax
 8049113:	89 44 24 08          	mov    %eax,0x8(%esp)
 8049117:	c7 44 24 04 7d a1 04 	movl   $0x804a17d,0x4(%esp)
 804911e:	08 
 804911f:	c7 04 24 01 00 00 00 	movl   $0x1,(%esp)
 8049126:	e8 59 f7 ff ff       	call   8048884 <__printf_chk@plt>
 804912b:	a1 18 d1 04 08       	mov    0x804d118,%eax
 8049130:	89 04 24             	mov    %eax,(%esp)
 8049133:	e8 1c f8 ff ff       	call   8048954 <srandom@plt>
 8049138:	e8 f7 f6 ff ff       	call   8048834 <random@plt>
 804913d:	25 f0 0f 00 00       	and    $0xff0,%eax
 8049142:	05 00 01 00 00       	add    $0x100,%eax
 8049147:	89 44 24 18          	mov    %eax,0x18(%esp)
 804914b:	c7 44 24 04 04 00 00 	movl   $0x4,0x4(%esp)
 8049152:	00 
 8049153:	89 3c 24             	mov    %edi,(%esp)
 8049156:	e8 39 f7 ff ff       	call   8048894 <calloc@plt>
 804915b:	89 c6                	mov    %eax,%esi
 804915d:	c7 00 00 00 00 00    	movl   $0x0,(%eax)
 8049163:	83 ff 01             	cmp    $0x1,%edi
 8049166:	7e 20                	jle    8049188 <main+0x1c3>
 8049168:	bb 01 00 00 00       	mov    $0x1,%ebx
 804916d:	e8 c2 f6 ff ff       	call   8048834 <random@plt>
 8049172:	25 f0 00 00 00       	and    $0xf0,%eax
 8049177:	ba 80 00 00 00       	mov    $0x80,%edx
 804917c:	29 c2                	sub    %eax,%edx
 804917e:	89 14 9e             	mov    %edx,(%esi,%ebx,4)
 8049181:	83 c3 01             	add    $0x1,%ebx
 8049184:	39 fb                	cmp    %edi,%ebx
 8049186:	7c e5                	jl     804916d <main+0x1a8>
 8049188:	85 ff                	test   %edi,%edi
 804918a:	7e 23                	jle    80491af <main+0x1ea>
 804918c:	bb 00 00 00 00       	mov    $0x0,%ebx
 8049191:	8b 44 24 18          	mov    0x18(%esp),%eax
 8049195:	03 04 9e             	add    (%esi,%ebx,4),%eax
 8049198:	89 44 24 04          	mov    %eax,0x4(%esp)
 804919c:	8b 44 24 1c          	mov    0x1c(%esp),%eax
 80491a0:	89 04 24             	mov    %eax,(%esp)
 80491a3:	e8 53 fd ff ff       	call   8048efb <launcher>
 80491a8:	83 c3 01             	add    $0x1,%ebx
 80491ab:	39 fb                	cmp    %edi,%ebx
 80491ad:	7c e2                	jl     8049191 <main+0x1cc>
 80491af:	b8 00 00 00 00       	mov    $0x0,%eax
 80491b4:	83 c4 24             	add    $0x24,%esp
 80491b7:	5b                   	pop    %ebx
 80491b8:	5e                   	pop    %esi
 80491b9:	5f                   	pop    %edi
 80491ba:	89 ec                	mov    %ebp,%esp
 80491bc:	5d                   	pop    %ebp
 80491bd:	c3                   	ret    
 80491be:	90                   	nop
 80491bf:	90                   	nop

080491c0 <initialize_bomb>:
 80491c0:	55                   	push   %ebp
 80491c1:	89 e5                	mov    %esp,%ebp
 80491c3:	56                   	push   %esi
 80491c4:	53                   	push   %ebx
 80491c5:	81 ec 10 24 00 00    	sub    $0x2410,%esp
 80491cb:	c7 04 24 ff ff ff ff 	movl   $0xffffffff,(%esp)
 80491d2:	e8 8b 0a 00 00       	call   8049c62 <init_timeout>
 80491d7:	83 3d 10 d1 04 08 00 	cmpl   $0x0,0x804d110
 80491de:	0f 84 f9 00 00 00    	je     80492dd <initialize_bomb+0x11d>
 80491e4:	c7 44 24 04 00 04 00 	movl   $0x400,0x4(%esp)
 80491eb:	00 
 80491ec:	8d 85 f8 fb ff ff    	lea    -0x408(%ebp),%eax
 80491f2:	89 04 24             	mov    %eax,(%esp)
 80491f5:	e8 8a f7 ff ff       	call   8048984 <gethostname@plt>
 80491fa:	85 c0                	test   %eax,%eax
 80491fc:	75 19                	jne    8049217 <initialize_bomb+0x57>
 80491fe:	a1 c0 c0 04 08       	mov    0x804c0c0,%eax
 8049203:	bb 00 00 00 00       	mov    $0x0,%ebx
 8049208:	8d b5 f8 fb ff ff    	lea    -0x408(%ebp),%esi
 804920e:	85 c0                	test   %eax,%eax
 8049210:	75 1d                	jne    804922f <initialize_bomb+0x6f>
 8049212:	e9 9d 00 00 00       	jmp    80492b4 <initialize_bomb+0xf4>
 8049217:	c7 04 24 a4 a3 04 08 	movl   $0x804a3a4,(%esp)
 804921e:	e8 71 f7 ff ff       	call   8048994 <puts@plt>
 8049223:	c7 04 24 08 00 00 00 	movl   $0x8,(%esp)
 804922a:	e8 d5 f7 ff ff       	call   8048a04 <exit@plt>
 804922f:	89 74 24 04          	mov    %esi,0x4(%esp)
 8049233:	89 04 24             	mov    %eax,(%esp)
 8049236:	e8 09 f7 ff ff       	call   8048944 <strcasecmp@plt>
 804923b:	85 c0                	test   %eax,%eax
 804923d:	74 10                	je     804924f <initialize_bomb+0x8f>
 804923f:	83 c3 01             	add    $0x1,%ebx
 8049242:	8b 04 9d c0 c0 04 08 	mov    0x804c0c0(,%ebx,4),%eax
 8049249:	85 c0                	test   %eax,%eax
 804924b:	75 e2                	jne    804922f <initialize_bomb+0x6f>
 804924d:	eb 65                	jmp    80492b4 <initialize_bomb+0xf4>
 804924f:	8d 85 f8 db ff ff    	lea    -0x2408(%ebp),%eax
 8049255:	89 04 24             	mov    %eax,(%esp)
 8049258:	e8 3f 0a 00 00       	call   8049c9c <init_driver>
 804925d:	85 c0                	test   %eax,%eax
 804925f:	79 7c                	jns    80492dd <initialize_bomb+0x11d>
 8049261:	eb 27                	jmp    804928a <initialize_bomb+0xca>
 8049263:	bb 00 00 00 00       	mov    $0x0,%ebx
 8049268:	89 04 24             	mov    %eax,(%esp)
 804926b:	e8 24 f7 ff ff       	call   8048994 <puts@plt>
 8049270:	83 c3 01             	add    $0x1,%ebx
 8049273:	8b 04 9d c0 c0 04 08 	mov    0x804c0c0(,%ebx,4),%eax
 804927a:	85 c0                	test   %eax,%eax
 804927c:	75 ea                	jne    8049268 <initialize_bomb+0xa8>
 804927e:	c7 04 24 08 00 00 00 	movl   $0x8,(%esp)
 8049285:	e8 7a f7 ff ff       	call   8048a04 <exit@plt>
 804928a:	8d 85 f8 db ff ff    	lea    -0x2408(%ebp),%eax
 8049290:	89 44 24 08          	mov    %eax,0x8(%esp)
 8049294:	c7 44 24 04 12 a5 04 	movl   $0x804a512,0x4(%esp)
 804929b:	08 
 804929c:	c7 04 24 01 00 00 00 	movl   $0x1,(%esp)
 80492a3:	e8 dc f5 ff ff       	call   8048884 <__printf_chk@plt>
 80492a8:	c7 04 24 08 00 00 00 	movl   $0x8,(%esp)
 80492af:	e8 50 f7 ff ff       	call   8048a04 <exit@plt>
 80492b4:	8d 85 f8 fb ff ff    	lea    -0x408(%ebp),%eax
 80492ba:	89 44 24 08          	mov    %eax,0x8(%esp)
 80492be:	c7 44 24 04 dc a3 04 	movl   $0x804a3dc,0x4(%esp)
 80492c5:	08 
 80492c6:	c7 04 24 01 00 00 00 	movl   $0x1,(%esp)
 80492cd:	e8 b2 f5 ff ff       	call   8048884 <__printf_chk@plt>
 80492d2:	a1 c0 c0 04 08       	mov    0x804c0c0,%eax
 80492d7:	85 c0                	test   %eax,%eax
 80492d9:	75 88                	jne    8049263 <initialize_bomb+0xa3>
 80492db:	eb a1                	jmp    804927e <initialize_bomb+0xbe>
 80492dd:	81 c4 10 24 00 00    	add    $0x2410,%esp
 80492e3:	5b                   	pop    %ebx
 80492e4:	5e                   	pop    %esi
 80492e5:	5d                   	pop    %ebp
 80492e6:	c3                   	ret    

080492e7 <validate>:
 80492e7:	55                   	push   %ebp
 80492e8:	89 e5                	mov    %esp,%ebp
 80492ea:	81 ec 28 40 00 00    	sub    $0x4028,%esp
 80492f0:	89 5d f8             	mov    %ebx,-0x8(%ebp)
 80492f3:	89 7d fc             	mov    %edi,-0x4(%ebp)
 80492f6:	8b 5d 08             	mov    0x8(%ebp),%ebx
 80492f9:	83 3d 0c d1 04 08 00 	cmpl   $0x0,0x804d10c
 8049300:	75 11                	jne    8049313 <validate+0x2c>
 8049302:	c7 04 24 18 a4 04 08 	movl   $0x804a418,(%esp)
 8049309:	e8 86 f6 ff ff       	call   8048994 <puts@plt>
 804930e:	e9 28 01 00 00       	jmp    804943b <validate+0x154>
 8049313:	83 fb 04             	cmp    $0x4,%ebx
 8049316:	76 11                	jbe    8049329 <validate+0x42>
 8049318:	c7 04 24 44 a4 04 08 	movl   $0x804a444,(%esp)
 804931f:	e8 70 f6 ff ff       	call   8048994 <puts@plt>
 8049324:	e9 12 01 00 00       	jmp    804943b <validate+0x154>
 8049329:	c7 05 1c d1 04 08 01 	movl   $0x1,0x804d11c
 8049330:	00 00 00 
 8049333:	8b 04 9d c0 d0 04 08 	mov    0x804d0c0(,%ebx,4),%eax
 804933a:	83 e8 01             	sub    $0x1,%eax
 804933d:	89 04 9d c0 d0 04 08 	mov    %eax,0x804d0c0(,%ebx,4)
 8049344:	85 c0                	test   %eax,%eax
 8049346:	7e 11                	jle    8049359 <validate+0x72>
 8049348:	c7 04 24 27 a5 04 08 	movl   $0x804a527,(%esp)
 804934f:	e8 40 f6 ff ff       	call   8048994 <puts@plt>
 8049354:	e9 e2 00 00 00       	jmp    804943b <validate+0x154>
 8049359:	c7 04 24 32 a5 04 08 	movl   $0x804a532,(%esp)
 8049360:	e8 2f f6 ff ff       	call   8048994 <puts@plt>
 8049365:	83 3d 10 d1 04 08 00 	cmpl   $0x0,0x804d110
 804936c:	0f 84 bd 00 00 00    	je     804942f <validate+0x148>
 8049372:	bf 40 d1 04 08       	mov    $0x804d140,%edi
 8049377:	b8 00 00 00 00       	mov    $0x0,%eax
 804937c:	b9 ff ff ff ff       	mov    $0xffffffff,%ecx
 8049381:	f2 ae                	repnz scas %es:(%edi),%al
 8049383:	f7 d1                	not    %ecx
 8049385:	83 c1 1f             	add    $0x1f,%ecx
 8049388:	81 f9 00 20 00 00    	cmp    $0x2000,%ecx
 804938e:	76 11                	jbe    80493a1 <validate+0xba>
 8049390:	c7 04 24 6c a4 04 08 	movl   $0x804a46c,(%esp)
 8049397:	e8 f8 f5 ff ff       	call   8048994 <puts@plt>
 804939c:	e9 9a 00 00 00       	jmp    804943b <validate+0x154>
 80493a1:	c7 44 24 18 40 d1 04 	movl   $0x804d140,0x18(%esp)
 80493a8:	08 
 80493a9:	a1 18 d1 04 08       	mov    0x804d118,%eax
 80493ae:	89 44 24 14          	mov    %eax,0x14(%esp)
 80493b2:	89 5c 24 10          	mov    %ebx,0x10(%esp)
 80493b6:	c7 44 24 0c 38 a5 04 	movl   $0x804a538,0xc(%esp)
 80493bd:	08 
 80493be:	c7 44 24 08 00 20 00 	movl   $0x2000,0x8(%esp)
 80493c5:	00 
 80493c6:	c7 44 24 04 01 00 00 	movl   $0x1,0x4(%esp)
 80493cd:	00 
 80493ce:	8d 9d f8 df ff ff    	lea    -0x2008(%ebp),%ebx
 80493d4:	89 1c 24             	mov    %ebx,(%esp)
 80493d7:	e8 d8 f5 ff ff       	call   80489b4 <__sprintf_chk@plt>
 80493dc:	8d 85 f8 bf ff ff    	lea    -0x4008(%ebp),%eax
 80493e2:	89 44 24 0c          	mov    %eax,0xc(%esp)
 80493e6:	c7 44 24 08 00 00 00 	movl   $0x0,0x8(%esp)
 80493ed:	00 
 80493ee:	89 5c 24 04          	mov    %ebx,0x4(%esp)
 80493f2:	a1 0c d1 04 08       	mov    0x804d10c,%eax
 80493f7:	89 04 24             	mov    %eax,(%esp)
 80493fa:	e8 62 0a 00 00       	call   8049e61 <driver_post>
 80493ff:	85 c0                	test   %eax,%eax
 8049401:	75 0e                	jne    8049411 <validate+0x12a>
 8049403:	c7 04 24 a4 a4 04 08 	movl   $0x804a4a4,(%esp)
 804940a:	e8 85 f5 ff ff       	call   8048994 <puts@plt>
 804940f:	eb 1e                	jmp    804942f <validate+0x148>
 8049411:	8d 85 f8 bf ff ff    	lea    -0x4008(%ebp),%eax
 8049417:	89 44 24 08          	mov    %eax,0x8(%esp)
 804941b:	c7 44 24 04 d4 a4 04 	movl   $0x804a4d4,0x4(%esp)
 8049422:	08 
 8049423:	c7 04 24 01 00 00 00 	movl   $0x1,(%esp)
 804942a:	e8 55 f4 ff ff       	call   8048884 <__printf_chk@plt>
 804942f:	c7 04 24 41 a5 04 08 	movl   $0x804a541,(%esp)
 8049436:	e8 59 f5 ff ff       	call   8048994 <puts@plt>
 804943b:	8b 5d f8             	mov    -0x8(%ebp),%ebx
 804943e:	8b 7d fc             	mov    -0x4(%ebp),%edi
 8049441:	89 ec                	mov    %ebp,%esp
 8049443:	5d                   	pop    %ebp
 8049444:	c3                   	ret    
 8049445:	90                   	nop
 8049446:	90                   	nop
 8049447:	90                   	nop
 8049448:	90                   	nop
 8049449:	90                   	nop
 804944a:	90                   	nop
 804944b:	90                   	nop
 804944c:	90                   	nop
 804944d:	90                   	nop
 804944e:	90                   	nop
 804944f:	90                   	nop

08049450 <rio_readlineb>:
 8049450:	55                   	push   %ebp
 8049451:	89 e5                	mov    %esp,%ebp
 8049453:	57                   	push   %edi
 8049454:	56                   	push   %esi
 8049455:	53                   	push   %ebx
 8049456:	83 ec 3c             	sub    $0x3c,%esp
 8049459:	89 c3                	mov    %eax,%ebx
 804945b:	89 4d cc             	mov    %ecx,-0x34(%ebp)
 804945e:	89 55 d0             	mov    %edx,-0x30(%ebp)
 8049461:	c7 45 d4 01 00 00 00 	movl   $0x1,-0x2c(%ebp)
 8049468:	8d 78 0c             	lea    0xc(%eax),%edi
 804946b:	83 f9 01             	cmp    $0x1,%ecx
 804946e:	77 40                	ja     80494b0 <rio_readlineb+0x60>
 8049470:	e9 a2 00 00 00       	jmp    8049517 <rio_readlineb+0xc7>
 8049475:	c7 44 24 08 00 20 00 	movl   $0x2000,0x8(%esp)
 804947c:	00 
 804947d:	89 7c 24 04          	mov    %edi,0x4(%esp)
 8049481:	8b 03                	mov    (%ebx),%eax
 8049483:	89 04 24             	mov    %eax,(%esp)
 8049486:	e8 69 f4 ff ff       	call   80488f4 <read@plt>
 804948b:	89 43 04             	mov    %eax,0x4(%ebx)
 804948e:	85 c0                	test   %eax,%eax
 8049490:	79 13                	jns    80494a5 <rio_readlineb+0x55>
 8049492:	e8 4d f3 ff ff       	call   80487e4 <__errno_location@plt>
 8049497:	83 38 04             	cmpl   $0x4,(%eax)
 804949a:	74 14                	je     80494b0 <rio_readlineb+0x60>
 804949c:	8d 74 26 00          	lea    0x0(%esi,%eiz,1),%esi
 80494a0:	e9 95 00 00 00       	jmp    804953a <rio_readlineb+0xea>
 80494a5:	85 c0                	test   %eax,%eax
 80494a7:	0f 84 94 00 00 00    	je     8049541 <rio_readlineb+0xf1>
 80494ad:	89 7b 08             	mov    %edi,0x8(%ebx)
 80494b0:	8b 73 04             	mov    0x4(%ebx),%esi
 80494b3:	85 f6                	test   %esi,%esi
 80494b5:	7e be                	jle    8049475 <rio_readlineb+0x25>
 80494b7:	85 f6                	test   %esi,%esi
 80494b9:	0f 85 8c 00 00 00    	jne    804954b <rio_readlineb+0xfb>
 80494bf:	c7 44 24 0c 01 00 00 	movl   $0x1,0xc(%esp)
 80494c6:	00 
 80494c7:	89 74 24 08          	mov    %esi,0x8(%esp)
 80494cb:	8b 43 08             	mov    0x8(%ebx),%eax
 80494ce:	89 44 24 04          	mov    %eax,0x4(%esp)
 80494d2:	8d 45 e7             	lea    -0x19(%ebp),%eax
 80494d5:	89 04 24             	mov    %eax,(%esp)
 80494d8:	e8 07 f4 ff ff       	call   80488e4 <__memcpy_chk@plt>
 80494dd:	01 73 08             	add    %esi,0x8(%ebx)
 80494e0:	29 73 04             	sub    %esi,0x4(%ebx)
 80494e3:	83 fe 01             	cmp    $0x1,%esi
 80494e6:	75 15                	jne    80494fd <rio_readlineb+0xad>
 80494e8:	0f b6 45 e7          	movzbl -0x19(%ebp),%eax
 80494ec:	8b 55 d0             	mov    -0x30(%ebp),%edx
 80494ef:	88 02                	mov    %al,(%edx)
 80494f1:	83 c2 01             	add    $0x1,%edx
 80494f4:	89 55 d0             	mov    %edx,-0x30(%ebp)
 80494f7:	3c 0a                	cmp    $0xa,%al
 80494f9:	75 10                	jne    804950b <rio_readlineb+0xbb>
 80494fb:	eb 1a                	jmp    8049517 <rio_readlineb+0xc7>
 80494fd:	8b 45 d4             	mov    -0x2c(%ebp),%eax
 8049500:	85 f6                	test   %esi,%esi
 8049502:	75 1b                	jne    804951f <rio_readlineb+0xcf>
 8049504:	83 f8 01             	cmp    $0x1,%eax
 8049507:	75 0e                	jne    8049517 <rio_readlineb+0xc7>
 8049509:	eb 1d                	jmp    8049528 <rio_readlineb+0xd8>
 804950b:	83 45 d4 01          	addl   $0x1,-0x2c(%ebp)
 804950f:	8b 45 d4             	mov    -0x2c(%ebp),%eax
 8049512:	39 45 cc             	cmp    %eax,-0x34(%ebp)
 8049515:	77 99                	ja     80494b0 <rio_readlineb+0x60>
 8049517:	8b 55 d0             	mov    -0x30(%ebp),%edx
 804951a:	c6 02 00             	movb   $0x0,(%edx)
 804951d:	eb 10                	jmp    804952f <rio_readlineb+0xdf>
 804951f:	c7 45 d4 ff ff ff ff 	movl   $0xffffffff,-0x2c(%ebp)
 8049526:	eb 07                	jmp    804952f <rio_readlineb+0xdf>
 8049528:	c7 45 d4 00 00 00 00 	movl   $0x0,-0x2c(%ebp)
 804952f:	8b 45 d4             	mov    -0x2c(%ebp),%eax
 8049532:	83 c4 3c             	add    $0x3c,%esp
 8049535:	5b                   	pop    %ebx
 8049536:	5e                   	pop    %esi
 8049537:	5f                   	pop    %edi
 8049538:	5d                   	pop    %ebp
 8049539:	c3                   	ret    
 804953a:	be ff ff ff ff       	mov    $0xffffffff,%esi
 804953f:	eb 05                	jmp    8049546 <rio_readlineb+0xf6>
 8049541:	be 00 00 00 00       	mov    $0x0,%esi
 8049546:	8b 45 d4             	mov    -0x2c(%ebp),%eax
 8049549:	eb b5                	jmp    8049500 <rio_readlineb+0xb0>
 804954b:	8b 43 08             	mov    0x8(%ebx),%eax
 804954e:	0f b6 00             	movzbl (%eax),%eax
 8049551:	88 45 e7             	mov    %al,-0x19(%ebp)
 8049554:	83 43 08 01          	addl   $0x1,0x8(%ebx)
 8049558:	83 6b 04 01          	subl   $0x1,0x4(%ebx)
 804955c:	eb 8a                	jmp    80494e8 <rio_readlineb+0x98>

0804955e <sigalrm_handler>:
 804955e:	55                   	push   %ebp
 804955f:	89 e5                	mov    %esp,%ebp
 8049561:	83 ec 18             	sub    $0x18,%esp
 8049564:	c7 44 24 0c 05 00 00 	movl   $0x5,0xc(%esp)
 804956b:	00 
 804956c:	c7 44 24 08 98 a5 04 	movl   $0x804a598,0x8(%esp)
 8049573:	08 
 8049574:	c7 44 24 04 01 00 00 	movl   $0x1,0x4(%esp)
 804957b:	00 
 804957c:	a1 e0 d0 04 08       	mov    0x804d0e0,%eax
 8049581:	89 04 24             	mov    %eax,(%esp)
 8049584:	e8 bb f2 ff ff       	call   8048844 <__fprintf_chk@plt>
 8049589:	c7 04 24 01 00 00 00 	movl   $0x1,(%esp)
 8049590:	e8 6f f4 ff ff       	call   8048a04 <exit@plt>

08049595 <submitr>:
 8049595:	55                   	push   %ebp
 8049596:	89 e5                	mov    %esp,%ebp
 8049598:	57                   	push   %edi
 8049599:	56                   	push   %esi
 804959a:	53                   	push   %ebx
 804959b:	81 ec 6c a0 00 00    	sub    $0xa06c,%esp
 80495a1:	8b 75 08             	mov    0x8(%ebp),%esi
 80495a4:	c7 85 c8 7f ff ff 00 	movl   $0x0,-0x8038(%ebp)
 80495ab:	00 00 00 
 80495ae:	c7 44 24 08 00 00 00 	movl   $0x0,0x8(%esp)
 80495b5:	00 
 80495b6:	c7 44 24 04 01 00 00 	movl   $0x1,0x4(%esp)
 80495bd:	00 
 80495be:	c7 04 24 02 00 00 00 	movl   $0x2,(%esp)
 80495c5:	e8 3a f3 ff ff       	call   8048904 <socket@plt>
 80495ca:	89 85 b0 5f ff ff    	mov    %eax,-0xa050(%ebp)
 80495d0:	85 c0                	test   %eax,%eax
 80495d2:	79 1b                	jns    80495ef <submitr+0x5a>
 80495d4:	b8 bc a5 04 08       	mov    $0x804a5bc,%eax
 80495d9:	b9 26 00 00 00       	mov    $0x26,%ecx
 80495de:	8b 7d 20             	mov    0x20(%ebp),%edi
 80495e1:	89 c6                	mov    %eax,%esi
 80495e3:	f3 a4                	rep movsb %ds:(%esi),%es:(%edi)
 80495e5:	b8 ff ff ff ff       	mov    $0xffffffff,%eax
 80495ea:	e9 fd 05 00 00       	jmp    8049bec <submitr+0x657>
 80495ef:	89 34 24             	mov    %esi,(%esp)
 80495f2:	e8 ed f3 ff ff       	call   80489e4 <gethostbyname@plt>
 80495f7:	85 c0                	test   %eax,%eax
 80495f9:	75 3f                	jne    804963a <submitr+0xa5>
 80495fb:	89 74 24 10          	mov    %esi,0x10(%esp)
 80495ff:	c7 44 24 0c e4 a5 04 	movl   $0x804a5e4,0xc(%esp)
 8049606:	08 
 8049607:	c7 44 24 08 ff ff ff 	movl   $0xffffffff,0x8(%esp)
 804960e:	ff 
 804960f:	c7 44 24 04 01 00 00 	movl   $0x1,0x4(%esp)
 8049616:	00 
 8049617:	8b 45 20             	mov    0x20(%ebp),%eax
 804961a:	89 04 24             	mov    %eax,(%esp)
 804961d:	e8 92 f3 ff ff       	call   80489b4 <__sprintf_chk@plt>
 8049622:	8b 95 b0 5f ff ff    	mov    -0xa050(%ebp),%edx
 8049628:	89 14 24             	mov    %edx,(%esp)
 804962b:	e8 34 f3 ff ff       	call   8048964 <close@plt>
 8049630:	b8 ff ff ff ff       	mov    $0xffffffff,%eax
 8049635:	e9 b2 05 00 00       	jmp    8049bec <submitr+0x657>
 804963a:	8d 5d d8             	lea    -0x28(%ebp),%ebx
 804963d:	c7 45 d8 00 00 00 00 	movl   $0x0,-0x28(%ebp)
 8049644:	c7 45 dc 00 00 00 00 	movl   $0x0,-0x24(%ebp)
 804964b:	c7 45 e0 00 00 00 00 	movl   $0x0,-0x20(%ebp)
 8049652:	c7 45 e4 00 00 00 00 	movl   $0x0,-0x1c(%ebp)
 8049659:	66 c7 45 d8 02 00    	movw   $0x2,-0x28(%ebp)
 804965f:	c7 44 24 0c 0c 00 00 	movl   $0xc,0xc(%esp)
 8049666:	00 
 8049667:	8b 50 0c             	mov    0xc(%eax),%edx
 804966a:	89 54 24 08          	mov    %edx,0x8(%esp)
 804966e:	8b 40 10             	mov    0x10(%eax),%eax
 8049671:	8b 00                	mov    (%eax),%eax
 8049673:	89 44 24 04          	mov    %eax,0x4(%esp)
 8049677:	8d 45 dc             	lea    -0x24(%ebp),%eax
 804967a:	89 04 24             	mov    %eax,(%esp)
 804967d:	e8 52 f3 ff ff       	call   80489d4 <__memmove_chk@plt>
 8049682:	0f b7 45 0c          	movzwl 0xc(%ebp),%eax
 8049686:	66 c1 c8 08          	ror    $0x8,%ax
 804968a:	66 89 45 da          	mov    %ax,-0x26(%ebp)
 804968e:	c7 44 24 08 10 00 00 	movl   $0x10,0x8(%esp)
 8049695:	00 
 8049696:	89 5c 24 04          	mov    %ebx,0x4(%esp)
 804969a:	8b 8d b0 5f ff ff    	mov    -0xa050(%ebp),%ecx
 80496a0:	89 0c 24             	mov    %ecx,(%esp)
 80496a3:	e8 5c f1 ff ff       	call   8048804 <connect@plt>
 80496a8:	85 c0                	test   %eax,%eax
 80496aa:	79 3f                	jns    80496eb <submitr+0x156>
 80496ac:	89 74 24 10          	mov    %esi,0x10(%esp)
 80496b0:	c7 44 24 0c 10 a6 04 	movl   $0x804a610,0xc(%esp)
 80496b7:	08 
 80496b8:	c7 44 24 08 ff ff ff 	movl   $0xffffffff,0x8(%esp)
 80496bf:	ff 
 80496c0:	c7 44 24 04 01 00 00 	movl   $0x1,0x4(%esp)
 80496c7:	00 
 80496c8:	8b 75 20             	mov    0x20(%ebp),%esi
 80496cb:	89 34 24             	mov    %esi,(%esp)
 80496ce:	e8 e1 f2 ff ff       	call   80489b4 <__sprintf_chk@plt>
 80496d3:	8b bd b0 5f ff ff    	mov    -0xa050(%ebp),%edi
 80496d9:	89 3c 24             	mov    %edi,(%esp)
 80496dc:	e8 83 f2 ff ff       	call   8048964 <close@plt>
 80496e1:	b8 ff ff ff ff       	mov    $0xffffffff,%eax
 80496e6:	e9 01 05 00 00       	jmp    8049bec <submitr+0x657>
 80496eb:	ba ff ff ff ff       	mov    $0xffffffff,%edx
 80496f0:	8b 7d 1c             	mov    0x1c(%ebp),%edi
 80496f3:	b8 00 00 00 00       	mov    $0x0,%eax
 80496f8:	89 d1                	mov    %edx,%ecx
 80496fa:	f2 ae                	repnz scas %es:(%edi),%al
 80496fc:	89 cb                	mov    %ecx,%ebx
 80496fe:	f7 d3                	not    %ebx
 8049700:	8b 7d 10             	mov    0x10(%ebp),%edi
 8049703:	89 d1                	mov    %edx,%ecx
 8049705:	f2 ae                	repnz scas %es:(%edi),%al
 8049707:	89 8d b4 5f ff ff    	mov    %ecx,-0xa04c(%ebp)
 804970d:	8b 7d 14             	mov    0x14(%ebp),%edi
 8049710:	89 d1                	mov    %edx,%ecx
 8049712:	f2 ae                	repnz scas %es:(%edi),%al
 8049714:	89 ce                	mov    %ecx,%esi
 8049716:	f7 d6                	not    %esi
 8049718:	8b 7d 18             	mov    0x18(%ebp),%edi
 804971b:	89 d1                	mov    %edx,%ecx
 804971d:	f2 ae                	repnz scas %es:(%edi),%al
 804971f:	2b b5 b4 5f ff ff    	sub    -0xa04c(%ebp),%esi
 8049725:	29 ce                	sub    %ecx,%esi
 8049727:	8d 44 5b fd          	lea    -0x3(%ebx,%ebx,2),%eax
 804972b:	8d 44 06 7b          	lea    0x7b(%esi,%eax,1),%eax
 804972f:	3d 00 20 00 00       	cmp    $0x2000,%eax
 8049734:	76 7c                	jbe    80497b2 <submitr+0x21d>
 8049736:	8b 75 20             	mov    0x20(%ebp),%esi
 8049739:	c7 06 45 72 72 6f    	movl   $0x6f727245,(%esi)
 804973f:	c7 46 04 72 3a 20 52 	movl   $0x52203a72,0x4(%esi)
 8049746:	c7 46 08 65 73 75 6c 	movl   $0x6c757365,0x8(%esi)
 804974d:	c7 46 0c 74 20 73 74 	movl   $0x74732074,0xc(%esi)
 8049754:	c7 46 10 72 69 6e 67 	movl   $0x676e6972,0x10(%esi)
 804975b:	c7 46 14 20 74 6f 6f 	movl   $0x6f6f7420,0x14(%esi)
 8049762:	c7 46 18 20 6c 61 72 	movl   $0x72616c20,0x18(%esi)
 8049769:	c7 46 1c 67 65 2e 20 	movl   $0x202e6567,0x1c(%esi)
 8049770:	c7 46 20 49 6e 63 72 	movl   $0x72636e49,0x20(%esi)
 8049777:	c7 46 24 65 61 73 65 	movl   $0x65736165,0x24(%esi)
 804977e:	c7 46 28 20 53 55 42 	movl   $0x42555320,0x28(%esi)
 8049785:	c7 46 2c 4d 49 54 52 	movl   $0x5254494d,0x2c(%esi)
 804978c:	c7 46 30 5f 4d 41 58 	movl   $0x58414d5f,0x30(%esi)
 8049793:	c7 46 34 42 55 46 00 	movl   $0x465542,0x34(%esi)
 804979a:	8b bd b0 5f ff ff    	mov    -0xa050(%ebp),%edi
 80497a0:	89 3c 24             	mov    %edi,(%esp)
 80497a3:	e8 bc f1 ff ff       	call   8048964 <close@plt>
 80497a8:	b8 ff ff ff ff       	mov    $0xffffffff,%eax
 80497ad:	e9 3a 04 00 00       	jmp    8049bec <submitr+0x657>
 80497b2:	8d 95 cc 9f ff ff    	lea    -0x6034(%ebp),%edx
 80497b8:	b9 00 08 00 00       	mov    $0x800,%ecx
 80497bd:	b8 00 00 00 00       	mov    $0x0,%eax
 80497c2:	89 d7                	mov    %edx,%edi
 80497c4:	f3 ab                	rep stos %eax,%es:(%edi)
 80497c6:	8b 7d 1c             	mov    0x1c(%ebp),%edi
 80497c9:	b9 ff ff ff ff       	mov    $0xffffffff,%ecx
 80497ce:	f2 ae                	repnz scas %es:(%edi),%al
 80497d0:	f7 d1                	not    %ecx
 80497d2:	89 cf                	mov    %ecx,%edi
 80497d4:	83 ef 01             	sub    $0x1,%edi
 80497d7:	0f 84 1a 04 00 00    	je     8049bf7 <submitr+0x662>
 80497dd:	89 d6                	mov    %edx,%esi
 80497df:	bb 00 00 00 00       	mov    $0x0,%ebx
 80497e4:	89 bd b4 5f ff ff    	mov    %edi,-0xa04c(%ebp)
 80497ea:	8b 7d 1c             	mov    0x1c(%ebp),%edi
 80497ed:	0f b6 04 1f          	movzbl (%edi,%ebx,1),%eax
 80497f1:	3c 2a                	cmp    $0x2a,%al
 80497f3:	74 25                	je     804981a <submitr+0x285>
 80497f5:	3c 2d                	cmp    $0x2d,%al
 80497f7:	74 21                	je     804981a <submitr+0x285>
 80497f9:	3c 2e                	cmp    $0x2e,%al
 80497fb:	74 1d                	je     804981a <submitr+0x285>
 80497fd:	3c 5f                	cmp    $0x5f,%al
 80497ff:	90                   	nop
 8049800:	74 18                	je     804981a <submitr+0x285>
 8049802:	8d 50 d0             	lea    -0x30(%eax),%edx
 8049805:	80 fa 09             	cmp    $0x9,%dl
 8049808:	76 10                	jbe    804981a <submitr+0x285>
 804980a:	8d 50 bf             	lea    -0x41(%eax),%edx
 804980d:	80 fa 19             	cmp    $0x19,%dl
 8049810:	76 08                	jbe    804981a <submitr+0x285>
 8049812:	8d 50 9f             	lea    -0x61(%eax),%edx
 8049815:	80 fa 19             	cmp    $0x19,%dl
 8049818:	77 07                	ja     8049821 <submitr+0x28c>
 804981a:	88 06                	mov    %al,(%esi)
 804981c:	83 c6 01             	add    $0x1,%esi
 804981f:	eb 65                	jmp    8049886 <submitr+0x2f1>
 8049821:	3c 20                	cmp    $0x20,%al
 8049823:	75 08                	jne    804982d <submitr+0x298>
 8049825:	c6 06 2b             	movb   $0x2b,(%esi)
 8049828:	83 c6 01             	add    $0x1,%esi
 804982b:	eb 59                	jmp    8049886 <submitr+0x2f1>
 804982d:	8d 50 e0             	lea    -0x20(%eax),%edx
 8049830:	80 fa 5f             	cmp    $0x5f,%dl
 8049833:	76 04                	jbe    8049839 <submitr+0x2a4>
 8049835:	3c 09                	cmp    $0x9,%al
 8049837:	75 61                	jne    804989a <submitr+0x305>
 8049839:	0f b6 c0             	movzbl %al,%eax
 804983c:	89 44 24 10          	mov    %eax,0x10(%esp)
 8049840:	c7 44 24 0c c0 a7 04 	movl   $0x804a7c0,0xc(%esp)
 8049847:	08 
 8049848:	c7 44 24 08 08 00 00 	movl   $0x8,0x8(%esp)
 804984f:	00 
 8049850:	c7 44 24 04 01 00 00 	movl   $0x1,0x4(%esp)
 8049857:	00 
 8049858:	8d 85 c0 5f ff ff    	lea    -0xa040(%ebp),%eax
 804985e:	89 04 24             	mov    %eax,(%esp)
 8049861:	e8 4e f1 ff ff       	call   80489b4 <__sprintf_chk@plt>
 8049866:	0f b6 85 c0 5f ff ff 	movzbl -0xa040(%ebp),%eax
 804986d:	88 06                	mov    %al,(%esi)
 804986f:	0f b6 85 c1 5f ff ff 	movzbl -0xa03f(%ebp),%eax
 8049876:	88 46 01             	mov    %al,0x1(%esi)
 8049879:	0f b6 85 c2 5f ff ff 	movzbl -0xa03e(%ebp),%eax
 8049880:	88 46 02             	mov    %al,0x2(%esi)
 8049883:	83 c6 03             	add    $0x3,%esi
 8049886:	83 c3 01             	add    $0x1,%ebx
 8049889:	3b 9d b4 5f ff ff    	cmp    -0xa04c(%ebp),%ebx
 804988f:	0f 85 58 ff ff ff    	jne    80497ed <submitr+0x258>
 8049895:	e9 5d 03 00 00       	jmp    8049bf7 <submitr+0x662>
 804989a:	b8 38 a6 04 08       	mov    $0x804a638,%eax
 804989f:	b9 43 00 00 00       	mov    $0x43,%ecx
 80498a4:	8b 7d 20             	mov    0x20(%ebp),%edi
 80498a7:	89 c6                	mov    %eax,%esi
 80498a9:	f3 a4                	rep movsb %ds:(%esi),%es:(%edi)
 80498ab:	8b 85 b0 5f ff ff    	mov    -0xa050(%ebp),%eax
 80498b1:	89 04 24             	mov    %eax,(%esp)
 80498b4:	e8 ab f0 ff ff       	call   8048964 <close@plt>
 80498b9:	b8 ff ff ff ff       	mov    $0xffffffff,%eax
 80498be:	e9 29 03 00 00       	jmp    8049bec <submitr+0x657>
 80498c3:	01 c6                	add    %eax,%esi
 80498c5:	eb 0c                	jmp    80498d3 <submitr+0x33e>
 80498c7:	89 bd b4 5f ff ff    	mov    %edi,-0xa04c(%ebp)
 80498cd:	8b bd b0 5f ff ff    	mov    -0xa050(%ebp),%edi
 80498d3:	89 5c 24 08          	mov    %ebx,0x8(%esp)
 80498d7:	89 74 24 04          	mov    %esi,0x4(%esp)
 80498db:	89 3c 24             	mov    %edi,(%esp)
 80498de:	e8 c1 ef ff ff       	call   80488a4 <write@plt>
 80498e3:	85 c0                	test   %eax,%eax
 80498e5:	7f 10                	jg     80498f7 <submitr+0x362>
 80498e7:	e8 f8 ee ff ff       	call   80487e4 <__errno_location@plt>
 80498ec:	83 38 04             	cmpl   $0x4,(%eax)
 80498ef:	90                   	nop
 80498f0:	75 13                	jne    8049905 <submitr+0x370>
 80498f2:	b8 00 00 00 00       	mov    $0x0,%eax
 80498f7:	29 c3                	sub    %eax,%ebx
 80498f9:	75 c8                	jne    80498c3 <submitr+0x32e>
 80498fb:	8b bd b4 5f ff ff    	mov    -0xa04c(%ebp),%edi
 8049901:	85 ff                	test   %edi,%edi
 8049903:	79 63                	jns    8049968 <submitr+0x3d3>
 8049905:	8b 7d 20             	mov    0x20(%ebp),%edi
 8049908:	be 7c a6 04 08       	mov    $0x804a67c,%esi
 804990d:	b8 2c 00 00 00       	mov    $0x2c,%eax
 8049912:	f7 c7 01 00 00 00    	test   $0x1,%edi
 8049918:	74 03                	je     804991d <submitr+0x388>
 804991a:	a4                   	movsb  %ds:(%esi),%es:(%edi)
 804991b:	b0 2b                	mov    $0x2b,%al
 804991d:	f7 c7 02 00 00 00    	test   $0x2,%edi
 8049923:	74 05                	je     804992a <submitr+0x395>
 8049925:	66 a5                	movsw  %ds:(%esi),%es:(%edi)
 8049927:	83 e8 02             	sub    $0x2,%eax
 804992a:	89 c1                	mov    %eax,%ecx
 804992c:	c1 e9 02             	shr    $0x2,%ecx
 804992f:	f3 a5                	rep movsl %ds:(%esi),%es:(%edi)
 8049931:	ba 00 00 00 00       	mov    $0x0,%edx
 8049936:	a8 02                	test   $0x2,%al
 8049938:	74 0b                	je     8049945 <submitr+0x3b0>
 804993a:	0f b7 16             	movzwl (%esi),%edx
 804993d:	66 89 17             	mov    %dx,(%edi)
 8049940:	ba 02 00 00 00       	mov    $0x2,%edx
 8049945:	a8 01                	test   $0x1,%al
 8049947:	74 07                	je     8049950 <submitr+0x3bb>
 8049949:	0f b6 04 16          	movzbl (%esi,%edx,1),%eax
 804994d:	88 04 17             	mov    %al,(%edi,%edx,1)
 8049950:	8b 95 b0 5f ff ff    	mov    -0xa050(%ebp),%edx
 8049956:	89 14 24             	mov    %edx,(%esp)
 8049959:	e8 06 f0 ff ff       	call   8048964 <close@plt>
 804995e:	b8 ff ff ff ff       	mov    $0xffffffff,%eax
 8049963:	e9 84 02 00 00       	jmp    8049bec <submitr+0x657>
 8049968:	8b 8d b0 5f ff ff    	mov    -0xa050(%ebp),%ecx
 804996e:	89 8d cc df ff ff    	mov    %ecx,-0x2034(%ebp)
 8049974:	c7 85 d0 df ff ff 00 	movl   $0x0,-0x2030(%ebp)
 804997b:	00 00 00 
 804997e:	8d 85 d8 df ff ff    	lea    -0x2028(%ebp),%eax
 8049984:	89 85 d4 df ff ff    	mov    %eax,-0x202c(%ebp)
 804998a:	b9 00 20 00 00       	mov    $0x2000,%ecx
 804998f:	8d 95 cc bf ff ff    	lea    -0x4034(%ebp),%edx
 8049995:	8d 85 cc df ff ff    	lea    -0x2034(%ebp),%eax
 804999b:	e8 b0 fa ff ff       	call   8049450 <rio_readlineb>
 80499a0:	85 c0                	test   %eax,%eax
 80499a2:	7f 29                	jg     80499cd <submitr+0x438>
 80499a4:	b8 a8 a6 04 08       	mov    $0x804a6a8,%eax
 80499a9:	b9 36 00 00 00       	mov    $0x36,%ecx
 80499ae:	8b 7d 20             	mov    0x20(%ebp),%edi
 80499b1:	89 c6                	mov    %eax,%esi
 80499b3:	f3 a4                	rep movsb %ds:(%esi),%es:(%edi)
 80499b5:	8b 85 b0 5f ff ff    	mov    -0xa050(%ebp),%eax
 80499bb:	89 04 24             	mov    %eax,(%esp)
 80499be:	e8 a1 ef ff ff       	call   8048964 <close@plt>
 80499c3:	b8 ff ff ff ff       	mov    $0xffffffff,%eax
 80499c8:	e9 1f 02 00 00       	jmp    8049bec <submitr+0x657>
 80499cd:	8d 85 c8 5f ff ff    	lea    -0xa038(%ebp),%eax
 80499d3:	89 44 24 10          	mov    %eax,0x10(%esp)
 80499d7:	8d 85 c8 7f ff ff    	lea    -0x8038(%ebp),%eax
 80499dd:	89 44 24 0c          	mov    %eax,0xc(%esp)
 80499e1:	8d 85 cc 7f ff ff    	lea    -0x8034(%ebp),%eax
 80499e7:	89 44 24 08          	mov    %eax,0x8(%esp)
 80499eb:	c7 44 24 04 c7 a7 04 	movl   $0x804a7c7,0x4(%esp)
 80499f2:	08 
 80499f3:	8d 85 cc bf ff ff    	lea    -0x4034(%ebp),%eax
 80499f9:	89 04 24             	mov    %eax,(%esp)
 80499fc:	e8 73 ee ff ff       	call   8048874 <__isoc99_sscanf@plt>
 8049a01:	8b 85 c8 7f ff ff    	mov    -0x8038(%ebp),%eax
 8049a07:	3d c8 00 00 00       	cmp    $0xc8,%eax
 8049a0c:	0f 84 d5 00 00 00    	je     8049ae7 <submitr+0x552>
 8049a12:	8d 95 c8 5f ff ff    	lea    -0xa038(%ebp),%edx
 8049a18:	89 54 24 14          	mov    %edx,0x14(%esp)
 8049a1c:	89 44 24 10          	mov    %eax,0x10(%esp)
 8049a20:	c7 44 24 0c e0 a6 04 	movl   $0x804a6e0,0xc(%esp)
 8049a27:	08 
 8049a28:	c7 44 24 08 ff ff ff 	movl   $0xffffffff,0x8(%esp)
 8049a2f:	ff 
 8049a30:	c7 44 24 04 01 00 00 	movl   $0x1,0x4(%esp)
 8049a37:	00 
 8049a38:	8b 55 20             	mov    0x20(%ebp),%edx
 8049a3b:	89 14 24             	mov    %edx,(%esp)
 8049a3e:	e8 71 ef ff ff       	call   80489b4 <__sprintf_chk@plt>
 8049a43:	8b 8d b0 5f ff ff    	mov    -0xa050(%ebp),%ecx
 8049a49:	89 0c 24             	mov    %ecx,(%esp)
 8049a4c:	e8 13 ef ff ff       	call   8048964 <close@plt>
 8049a51:	b8 ff ff ff ff       	mov    $0xffffffff,%eax
 8049a56:	e9 91 01 00 00       	jmp    8049bec <submitr+0x657>
 8049a5b:	b9 00 20 00 00       	mov    $0x2000,%ecx
 8049a60:	8d 95 cc bf ff ff    	lea    -0x4034(%ebp),%edx
 8049a66:	8d 85 cc df ff ff    	lea    -0x2034(%ebp),%eax
 8049a6c:	e8 df f9 ff ff       	call   8049450 <rio_readlineb>
 8049a71:	85 c0                	test   %eax,%eax
 8049a73:	7f 72                	jg     8049ae7 <submitr+0x552>
 8049a75:	8b 75 20             	mov    0x20(%ebp),%esi
 8049a78:	c7 06 45 72 72 6f    	movl   $0x6f727245,(%esi)
 8049a7e:	c7 46 04 72 3a 20 43 	movl   $0x43203a72,0x4(%esi)
 8049a85:	c7 46 08 6c 69 65 6e 	movl   $0x6e65696c,0x8(%esi)
 8049a8c:	c7 46 0c 74 20 75 6e 	movl   $0x6e752074,0xc(%esi)
 8049a93:	c7 46 10 61 62 6c 65 	movl   $0x656c6261,0x10(%esi)
 8049a9a:	c7 46 14 20 74 6f 20 	movl   $0x206f7420,0x14(%esi)
 8049aa1:	c7 46 18 72 65 61 64 	movl   $0x64616572,0x18(%esi)
 8049aa8:	c7 46 1c 20 68 65 61 	movl   $0x61656820,0x1c(%esi)
 8049aaf:	c7 46 20 64 65 72 73 	movl   $0x73726564,0x20(%esi)
 8049ab6:	c7 46 24 20 66 72 6f 	movl   $0x6f726620,0x24(%esi)
 8049abd:	c7 46 28 6d 20 73 65 	movl   $0x6573206d,0x28(%esi)
 8049ac4:	c7 46 2c 72 76 65 72 	movl   $0x72657672,0x2c(%esi)
 8049acb:	c6 46 30 00          	movb   $0x0,0x30(%esi)
 8049acf:	8b bd b0 5f ff ff    	mov    -0xa050(%ebp),%edi
 8049ad5:	89 3c 24             	mov    %edi,(%esp)
 8049ad8:	e8 87 ee ff ff       	call   8048964 <close@plt>
 8049add:	b8 ff ff ff ff       	mov    $0xffffffff,%eax
 8049ae2:	e9 05 01 00 00       	jmp    8049bec <submitr+0x657>
 8049ae7:	0f b6 05 d8 a7 04 08 	movzbl 0x804a7d8,%eax
 8049aee:	38 85 cc bf ff ff    	cmp    %al,-0x4034(%ebp)
 8049af4:	0f 85 61 ff ff ff    	jne    8049a5b <submitr+0x4c6>
 8049afa:	0f b6 15 d9 a7 04 08 	movzbl 0x804a7d9,%edx
 8049b01:	38 95 cd bf ff ff    	cmp    %dl,-0x4033(%ebp)
 8049b07:	0f 85 4e ff ff ff    	jne    8049a5b <submitr+0x4c6>
 8049b0d:	0f b6 0d da a7 04 08 	movzbl 0x804a7da,%ecx
 8049b14:	38 8d ce bf ff ff    	cmp    %cl,-0x4032(%ebp)
 8049b1a:	0f 85 3b ff ff ff    	jne    8049a5b <submitr+0x4c6>
 8049b20:	b9 00 20 00 00       	mov    $0x2000,%ecx
 8049b25:	8d 95 cc bf ff ff    	lea    -0x4034(%ebp),%edx
 8049b2b:	8d 85 cc df ff ff    	lea    -0x2034(%ebp),%eax
 8049b31:	e8 1a f9 ff ff       	call   8049450 <rio_readlineb>
 8049b36:	85 c0                	test   %eax,%eax
 8049b38:	7f 60                	jg     8049b9a <submitr+0x605>
 8049b3a:	8b 7d 20             	mov    0x20(%ebp),%edi
 8049b3d:	be 10 a7 04 08       	mov    $0x804a710,%esi
 8049b42:	b8 38 00 00 00       	mov    $0x38,%eax
 8049b47:	f7 c7 01 00 00 00    	test   $0x1,%edi
 8049b4d:	74 03                	je     8049b52 <submitr+0x5bd>
 8049b4f:	a4                   	movsb  %ds:(%esi),%es:(%edi)
 8049b50:	b0 37                	mov    $0x37,%al
 8049b52:	f7 c7 02 00 00 00    	test   $0x2,%edi
 8049b58:	74 05                	je     8049b5f <submitr+0x5ca>
 8049b5a:	66 a5                	movsw  %ds:(%esi),%es:(%edi)
 8049b5c:	83 e8 02             	sub    $0x2,%eax
 8049b5f:	89 c1                	mov    %eax,%ecx
 8049b61:	c1 e9 02             	shr    $0x2,%ecx
 8049b64:	f3 a5                	rep movsl %ds:(%esi),%es:(%edi)
 8049b66:	ba 00 00 00 00       	mov    $0x0,%edx
 8049b6b:	a8 02                	test   $0x2,%al
 8049b6d:	74 0b                	je     8049b7a <submitr+0x5e5>
 8049b6f:	0f b7 16             	movzwl (%esi),%edx
 8049b72:	66 89 17             	mov    %dx,(%edi)
 8049b75:	ba 02 00 00 00       	mov    $0x2,%edx
 8049b7a:	a8 01                	test   $0x1,%al
 8049b7c:	74 07                	je     8049b85 <submitr+0x5f0>
 8049b7e:	0f b6 04 16          	movzbl (%esi,%edx,1),%eax
 8049b82:	88 04 17             	mov    %al,(%edi,%edx,1)
 8049b85:	8b b5 b0 5f ff ff    	mov    -0xa050(%ebp),%esi
 8049b8b:	89 34 24             	mov    %esi,(%esp)
 8049b8e:	e8 d1 ed ff ff       	call   8048964 <close@plt>
 8049b93:	b8 ff ff ff ff       	mov    $0xffffffff,%eax
 8049b98:	eb 52                	jmp    8049bec <submitr+0x657>
 8049b9a:	8d 85 cc bf ff ff    	lea    -0x4034(%ebp),%eax
 8049ba0:	89 44 24 04          	mov    %eax,0x4(%esp)
 8049ba4:	8b 7d 20             	mov    0x20(%ebp),%edi
 8049ba7:	89 3c 24             	mov    %edi,(%esp)
 8049baa:	e8 85 ed ff ff       	call   8048934 <strcpy@plt>
 8049baf:	8b 85 b0 5f ff ff    	mov    -0xa050(%ebp),%eax
 8049bb5:	89 04 24             	mov    %eax,(%esp)
 8049bb8:	e8 a7 ed ff ff       	call   8048964 <close@plt>
 8049bbd:	b8 ff ff ff ff       	mov    $0xffffffff,%eax
 8049bc2:	0f b6 15 db a7 04 08 	movzbl 0x804a7db,%edx
 8049bc9:	38 17                	cmp    %dl,(%edi)
 8049bcb:	75 1f                	jne    8049bec <submitr+0x657>
 8049bcd:	0f b6 0d dc a7 04 08 	movzbl 0x804a7dc,%ecx
 8049bd4:	38 4f 01             	cmp    %cl,0x1(%edi)
 8049bd7:	75 13                	jne    8049bec <submitr+0x657>
 8049bd9:	0f b6 47 02          	movzbl 0x2(%edi),%eax
 8049bdd:	3a 05 dd a7 04 08    	cmp    0x804a7dd,%al
 8049be3:	0f 94 c0             	sete   %al
 8049be6:	0f b6 c0             	movzbl %al,%eax
 8049be9:	83 e8 01             	sub    $0x1,%eax
 8049bec:	81 c4 6c a0 00 00    	add    $0xa06c,%esp
 8049bf2:	5b                   	pop    %ebx
 8049bf3:	5e                   	pop    %esi
 8049bf4:	5f                   	pop    %edi
 8049bf5:	5d                   	pop    %ebp
 8049bf6:	c3                   	ret    
 8049bf7:	8d 85 cc 9f ff ff    	lea    -0x6034(%ebp),%eax
 8049bfd:	89 44 24 1c          	mov    %eax,0x1c(%esp)
 8049c01:	8b 75 18             	mov    0x18(%ebp),%esi
 8049c04:	89 74 24 18          	mov    %esi,0x18(%esp)
 8049c08:	8b 7d 14             	mov    0x14(%ebp),%edi
 8049c0b:	89 7c 24 14          	mov    %edi,0x14(%esp)
 8049c0f:	8b 45 10             	mov    0x10(%ebp),%eax
 8049c12:	89 44 24 10          	mov    %eax,0x10(%esp)
 8049c16:	c7 44 24 0c 48 a7 04 	movl   $0x804a748,0xc(%esp)
 8049c1d:	08 
 8049c1e:	c7 44 24 08 00 20 00 	movl   $0x2000,0x8(%esp)
 8049c25:	00 
 8049c26:	c7 44 24 04 01 00 00 	movl   $0x1,0x4(%esp)
 8049c2d:	00 
 8049c2e:	8d bd cc bf ff ff    	lea    -0x4034(%ebp),%edi
 8049c34:	89 3c 24             	mov    %edi,(%esp)
 8049c37:	e8 78 ed ff ff       	call   80489b4 <__sprintf_chk@plt>
 8049c3c:	b8 00 00 00 00       	mov    $0x0,%eax
 8049c41:	b9 ff ff ff ff       	mov    $0xffffffff,%ecx
 8049c46:	f2 ae                	repnz scas %es:(%edi),%al
 8049c48:	f7 d1                	not    %ecx
 8049c4a:	8d 79 ff             	lea    -0x1(%ecx),%edi
 8049c4d:	89 fb                	mov    %edi,%ebx
 8049c4f:	8d b5 cc bf ff ff    	lea    -0x4034(%ebp),%esi
 8049c55:	85 ff                	test   %edi,%edi
 8049c57:	0f 85 6a fc ff ff    	jne    80498c7 <submitr+0x332>
 8049c5d:	e9 06 fd ff ff       	jmp    8049968 <submitr+0x3d3>

08049c62 <init_timeout>:
 8049c62:	55                   	push   %ebp
 8049c63:	89 e5                	mov    %esp,%ebp
 8049c65:	53                   	push   %ebx
 8049c66:	83 ec 14             	sub    $0x14,%esp
 8049c69:	8b 5d 08             	mov    0x8(%ebp),%ebx
 8049c6c:	85 db                	test   %ebx,%ebx
 8049c6e:	74 26                	je     8049c96 <init_timeout+0x34>
 8049c70:	85 db                	test   %ebx,%ebx
 8049c72:	b8 05 00 00 00       	mov    $0x5,%eax
 8049c77:	0f 48 d8             	cmovs  %eax,%ebx
 8049c7a:	c7 44 24 04 5e 95 04 	movl   $0x804955e,0x4(%esp)
 8049c81:	08 
 8049c82:	c7 04 24 0e 00 00 00 	movl   $0xe,(%esp)
 8049c89:	e8 c6 eb ff ff       	call   8048854 <signal@plt>
 8049c8e:	89 1c 24             	mov    %ebx,(%esp)
 8049c91:	e8 8e ec ff ff       	call   8048924 <alarm@plt>
 8049c96:	83 c4 14             	add    $0x14,%esp
 8049c99:	5b                   	pop    %ebx
 8049c9a:	5d                   	pop    %ebp
 8049c9b:	c3                   	ret    

08049c9c <init_driver>:
 8049c9c:	55                   	push   %ebp
 8049c9d:	89 e5                	mov    %esp,%ebp
 8049c9f:	57                   	push   %edi
 8049ca0:	56                   	push   %esi
 8049ca1:	53                   	push   %ebx
 8049ca2:	83 ec 3c             	sub    $0x3c,%esp
 8049ca5:	8b 75 08             	mov    0x8(%ebp),%esi
 8049ca8:	c7 44 24 04 01 00 00 	movl   $0x1,0x4(%esp)
 8049caf:	00 
 8049cb0:	c7 04 24 0d 00 00 00 	movl   $0xd,(%esp)
 8049cb7:	e8 98 eb ff ff       	call   8048854 <signal@plt>
 8049cbc:	c7 44 24 04 01 00 00 	movl   $0x1,0x4(%esp)
 8049cc3:	00 
 8049cc4:	c7 04 24 1d 00 00 00 	movl   $0x1d,(%esp)
 8049ccb:	e8 84 eb ff ff       	call   8048854 <signal@plt>
 8049cd0:	c7 44 24 04 01 00 00 	movl   $0x1,0x4(%esp)
 8049cd7:	00 
 8049cd8:	c7 04 24 1d 00 00 00 	movl   $0x1d,(%esp)
 8049cdf:	e8 70 eb ff ff       	call   8048854 <signal@plt>
 8049ce4:	c7 44 24 08 00 00 00 	movl   $0x0,0x8(%esp)
 8049ceb:	00 
 8049cec:	c7 44 24 04 01 00 00 	movl   $0x1,0x4(%esp)
 8049cf3:	00 
 8049cf4:	c7 04 24 02 00 00 00 	movl   $0x2,(%esp)
 8049cfb:	e8 04 ec ff ff       	call   8048904 <socket@plt>
 8049d00:	89 c3                	mov    %eax,%ebx
 8049d02:	85 c0                	test   %eax,%eax
 8049d04:	79 4e                	jns    8049d54 <init_driver+0xb8>
 8049d06:	c7 06 45 72 72 6f    	movl   $0x6f727245,(%esi)
 8049d0c:	c7 46 04 72 3a 20 43 	movl   $0x43203a72,0x4(%esi)
 8049d13:	c7 46 08 6c 69 65 6e 	movl   $0x6e65696c,0x8(%esi)
 8049d1a:	c7 46 0c 74 20 75 6e 	movl   $0x6e752074,0xc(%esi)
 8049d21:	c7 46 10 61 62 6c 65 	movl   $0x656c6261,0x10(%esi)
 8049d28:	c7 46 14 20 74 6f 20 	movl   $0x206f7420,0x14(%esi)
 8049d2f:	c7 46 18 63 72 65 61 	movl   $0x61657263,0x18(%esi)
 8049d36:	c7 46 1c 74 65 20 73 	movl   $0x73206574,0x1c(%esi)
 8049d3d:	c7 46 20 6f 63 6b 65 	movl   $0x656b636f,0x20(%esi)
 8049d44:	66 c7 46 24 74 00    	movw   $0x74,0x24(%esi)
 8049d4a:	b8 ff ff ff ff       	mov    $0xffffffff,%eax
 8049d4f:	e9 05 01 00 00       	jmp    8049e59 <init_driver+0x1bd>
 8049d54:	c7 04 24 4b a5 04 08 	movl   $0x804a54b,(%esp)
 8049d5b:	e8 84 ec ff ff       	call   80489e4 <gethostbyname@plt>
 8049d60:	85 c0                	test   %eax,%eax
 8049d62:	75 3a                	jne    8049d9e <init_driver+0x102>
 8049d64:	c7 44 24 10 4b a5 04 	movl   $0x804a54b,0x10(%esp)
 8049d6b:	08 
 8049d6c:	c7 44 24 0c e4 a5 04 	movl   $0x804a5e4,0xc(%esp)
 8049d73:	08 
 8049d74:	c7 44 24 08 ff ff ff 	movl   $0xffffffff,0x8(%esp)
 8049d7b:	ff 
 8049d7c:	c7 44 24 04 01 00 00 	movl   $0x1,0x4(%esp)
 8049d83:	00 
 8049d84:	89 34 24             	mov    %esi,(%esp)
 8049d87:	e8 28 ec ff ff       	call   80489b4 <__sprintf_chk@plt>
 8049d8c:	89 1c 24             	mov    %ebx,(%esp)
 8049d8f:	e8 d0 eb ff ff       	call   8048964 <close@plt>
 8049d94:	b8 ff ff ff ff       	mov    $0xffffffff,%eax
 8049d99:	e9 bb 00 00 00       	jmp    8049e59 <init_driver+0x1bd>
 8049d9e:	8d 7d d8             	lea    -0x28(%ebp),%edi
 8049da1:	c7 45 d8 00 00 00 00 	movl   $0x0,-0x28(%ebp)
 8049da8:	c7 45 dc 00 00 00 00 	movl   $0x0,-0x24(%ebp)
 8049daf:	c7 45 e0 00 00 00 00 	movl   $0x0,-0x20(%ebp)
 8049db6:	c7 45 e4 00 00 00 00 	movl   $0x0,-0x1c(%ebp)
 8049dbd:	66 c7 45 d8 02 00    	movw   $0x2,-0x28(%ebp)
 8049dc3:	c7 44 24 0c 0c 00 00 	movl   $0xc,0xc(%esp)
 8049dca:	00 
 8049dcb:	8b 50 0c             	mov    0xc(%eax),%edx
 8049dce:	89 54 24 08          	mov    %edx,0x8(%esp)
 8049dd2:	8b 40 10             	mov    0x10(%eax),%eax
 8049dd5:	8b 00                	mov    (%eax),%eax
 8049dd7:	89 44 24 04          	mov    %eax,0x4(%esp)
 8049ddb:	8d 45 dc             	lea    -0x24(%ebp),%eax
 8049dde:	89 04 24             	mov    %eax,(%esp)
 8049de1:	e8 ee eb ff ff       	call   80489d4 <__memmove_chk@plt>
 8049de6:	66 c7 45 da 47 26    	movw   $0x2647,-0x26(%ebp)
 8049dec:	c7 44 24 08 10 00 00 	movl   $0x10,0x8(%esp)
 8049df3:	00 
 8049df4:	89 7c 24 04          	mov    %edi,0x4(%esp)
 8049df8:	89 1c 24             	mov    %ebx,(%esp)
 8049dfb:	e8 04 ea ff ff       	call   8048804 <connect@plt>
 8049e00:	85 c0                	test   %eax,%eax
 8049e02:	79 3f                	jns    8049e43 <init_driver+0x1a7>
 8049e04:	c7 44 24 14 26 47 00 	movl   $0x4726,0x14(%esp)
 8049e0b:	00 
 8049e0c:	c7 44 24 10 4b a5 04 	movl   $0x804a54b,0x10(%esp)
 8049e13:	08 
 8049e14:	c7 44 24 0c 94 a7 04 	movl   $0x804a794,0xc(%esp)
 8049e1b:	08 
 8049e1c:	c7 44 24 08 ff ff ff 	movl   $0xffffffff,0x8(%esp)
 8049e23:	ff 
 8049e24:	c7 44 24 04 01 00 00 	movl   $0x1,0x4(%esp)
 8049e2b:	00 
 8049e2c:	89 34 24             	mov    %esi,(%esp)
 8049e2f:	e8 80 eb ff ff       	call   80489b4 <__sprintf_chk@plt>
 8049e34:	89 1c 24             	mov    %ebx,(%esp)
 8049e37:	e8 28 eb ff ff       	call   8048964 <close@plt>
 8049e3c:	b8 ff ff ff ff       	mov    $0xffffffff,%eax
 8049e41:	eb 16                	jmp    8049e59 <init_driver+0x1bd>
 8049e43:	89 1c 24             	mov    %ebx,(%esp)
 8049e46:	e8 19 eb ff ff       	call   8048964 <close@plt>
 8049e4b:	66 c7 06 4f 4b       	movw   $0x4b4f,(%esi)
 8049e50:	c6 46 02 00          	movb   $0x0,0x2(%esi)
 8049e54:	b8 00 00 00 00       	mov    $0x0,%eax
 8049e59:	83 c4 3c             	add    $0x3c,%esp
 8049e5c:	5b                   	pop    %ebx
 8049e5d:	5e                   	pop    %esi
 8049e5e:	5f                   	pop    %edi
 8049e5f:	5d                   	pop    %ebp
 8049e60:	c3                   	ret    

08049e61 <driver_post>:
 8049e61:	55                   	push   %ebp
 8049e62:	89 e5                	mov    %esp,%ebp
 8049e64:	53                   	push   %ebx
 8049e65:	83 ec 24             	sub    $0x24,%esp
 8049e68:	8b 45 08             	mov    0x8(%ebp),%eax
 8049e6b:	8b 55 0c             	mov    0xc(%ebp),%edx
 8049e6e:	8b 5d 14             	mov    0x14(%ebp),%ebx
 8049e71:	83 7d 10 00          	cmpl   $0x0,0x10(%ebp)
 8049e75:	74 28                	je     8049e9f <driver_post+0x3e>
 8049e77:	89 54 24 08          	mov    %edx,0x8(%esp)
 8049e7b:	c7 44 24 04 de a7 04 	movl   $0x804a7de,0x4(%esp)
 8049e82:	08 
 8049e83:	c7 04 24 01 00 00 00 	movl   $0x1,(%esp)
 8049e8a:	e8 f5 e9 ff ff       	call   8048884 <__printf_chk@plt>
 8049e8f:	66 c7 03 4f 4b       	movw   $0x4b4f,(%ebx)
 8049e94:	c6 43 02 00          	movb   $0x0,0x2(%ebx)
 8049e98:	b8 00 00 00 00       	mov    $0x0,%eax
 8049e9d:	eb 49                	jmp    8049ee8 <driver_post+0x87>
 8049e9f:	85 c0                	test   %eax,%eax
 8049ea1:	74 37                	je     8049eda <driver_post+0x79>
 8049ea3:	80 38 00             	cmpb   $0x0,(%eax)
 8049ea6:	74 32                	je     8049eda <driver_post+0x79>
 8049ea8:	89 5c 24 18          	mov    %ebx,0x18(%esp)
 8049eac:	89 54 24 14          	mov    %edx,0x14(%esp)
 8049eb0:	c7 44 24 10 f5 a7 04 	movl   $0x804a7f5,0x10(%esp)
 8049eb7:	08 
 8049eb8:	89 44 24 0c          	mov    %eax,0xc(%esp)
 8049ebc:	c7 44 24 08 fc a7 04 	movl   $0x804a7fc,0x8(%esp)
 8049ec3:	08 
 8049ec4:	c7 44 24 04 26 47 00 	movl   $0x4726,0x4(%esp)
 8049ecb:	00 
 8049ecc:	c7 04 24 4b a5 04 08 	movl   $0x804a54b,(%esp)
 8049ed3:	e8 bd f6 ff ff       	call   8049595 <submitr>
 8049ed8:	eb 0e                	jmp    8049ee8 <driver_post+0x87>
 8049eda:	66 c7 03 4f 4b       	movw   $0x4b4f,(%ebx)
 8049edf:	c6 43 02 00          	movb   $0x0,0x2(%ebx)
 8049ee3:	b8 00 00 00 00       	mov    $0x0,%eax
 8049ee8:	83 c4 24             	add    $0x24,%esp
 8049eeb:	5b                   	pop    %ebx
 8049eec:	5d                   	pop    %ebp
 8049eed:	c3                   	ret    
 8049eee:	90                   	nop
 8049eef:	90                   	nop

08049ef0 <hash>:
 8049ef0:	55                   	push   %ebp
 8049ef1:	89 e5                	mov    %esp,%ebp
 8049ef3:	8b 4d 08             	mov    0x8(%ebp),%ecx
 8049ef6:	0f b6 11             	movzbl (%ecx),%edx
 8049ef9:	b8 00 00 00 00       	mov    $0x0,%eax
 8049efe:	84 d2                	test   %dl,%dl
 8049f00:	74 13                	je     8049f15 <hash+0x25>
 8049f02:	6b c0 67             	imul   $0x67,%eax,%eax
 8049f05:	0f be d2             	movsbl %dl,%edx
 8049f08:	8d 04 02             	lea    (%edx,%eax,1),%eax
 8049f0b:	83 c1 01             	add    $0x1,%ecx
 8049f0e:	0f b6 11             	movzbl (%ecx),%edx
 8049f11:	84 d2                	test   %dl,%dl
 8049f13:	75 ed                	jne    8049f02 <hash+0x12>
 8049f15:	5d                   	pop    %ebp
 8049f16:	c3                   	ret    

08049f17 <check>:
 8049f17:	55                   	push   %ebp
 8049f18:	89 e5                	mov    %esp,%ebp
 8049f1a:	8b 55 08             	mov    0x8(%ebp),%edx
 8049f1d:	89 d1                	mov    %edx,%ecx
 8049f1f:	c1 e9 1c             	shr    $0x1c,%ecx
 8049f22:	b8 00 00 00 00       	mov    $0x0,%eax
 8049f27:	85 c9                	test   %ecx,%ecx
 8049f29:	74 23                	je     8049f4e <check+0x37>
 8049f2b:	80 fa 0a             	cmp    $0xa,%dl
 8049f2e:	74 1e                	je     8049f4e <check+0x37>
 8049f30:	0f b6 ce             	movzbl %dh,%ecx
 8049f33:	83 f9 0a             	cmp    $0xa,%ecx
 8049f36:	74 16                	je     8049f4e <check+0x37>
 8049f38:	89 d1                	mov    %edx,%ecx
 8049f3a:	c1 e9 10             	shr    $0x10,%ecx
 8049f3d:	80 f9 0a             	cmp    $0xa,%cl
 8049f40:	74 0c                	je     8049f4e <check+0x37>
 8049f42:	c1 ea 18             	shr    $0x18,%edx
 8049f45:	83 fa 0a             	cmp    $0xa,%edx
 8049f48:	0f 95 c0             	setne  %al
 8049f4b:	0f b6 c0             	movzbl %al,%eax
 8049f4e:	5d                   	pop    %ebp
 8049f4f:	c3                   	ret    

08049f50 <gencookie>:
 8049f50:	55                   	push   %ebp
 8049f51:	89 e5                	mov    %esp,%ebp
 8049f53:	53                   	push   %ebx
 8049f54:	83 ec 14             	sub    $0x14,%esp
 8049f57:	8b 45 08             	mov    0x8(%ebp),%eax
 8049f5a:	89 04 24             	mov    %eax,(%esp)
 8049f5d:	e8 8e ff ff ff       	call   8049ef0 <hash>
 8049f62:	89 04 24             	mov    %eax,(%esp)
 8049f65:	e8 8a e8 ff ff       	call   80487f4 <srand@plt>
 8049f6a:	e8 35 ea ff ff       	call   80489a4 <rand@plt>
 8049f6f:	89 c3                	mov    %eax,%ebx
 8049f71:	89 04 24             	mov    %eax,(%esp)
 8049f74:	e8 9e ff ff ff       	call   8049f17 <check>
 8049f79:	85 c0                	test   %eax,%eax
 8049f7b:	74 ed                	je     8049f6a <gencookie+0x1a>
 8049f7d:	89 d8                	mov    %ebx,%eax
 8049f7f:	83 c4 14             	add    $0x14,%esp
 8049f82:	5b                   	pop    %ebx
 8049f83:	5d                   	pop    %ebp
 8049f84:	c3                   	ret    
 8049f85:	90                   	nop
 8049f86:	90                   	nop
 8049f87:	90                   	nop
 8049f88:	90                   	nop
 8049f89:	90                   	nop
 8049f8a:	90                   	nop
 8049f8b:	90                   	nop
 8049f8c:	90                   	nop
 8049f8d:	90                   	nop
 8049f8e:	90                   	nop
 8049f8f:	90                   	nop

08049f90 <__libc_csu_init>:
 8049f90:	55                   	push   %ebp
 8049f91:	89 e5                	mov    %esp,%ebp
 8049f93:	57                   	push   %edi
 8049f94:	56                   	push   %esi
 8049f95:	53                   	push   %ebx
 8049f96:	e8 5a 00 00 00       	call   8049ff5 <__i686.get_pc_thunk.bx>
 8049f9b:	81 c3 59 20 00 00    	add    $0x2059,%ebx
 8049fa1:	83 ec 1c             	sub    $0x1c,%esp
 8049fa4:	e8 fb e7 ff ff       	call   80487a4 <_init>
 8049fa9:	8d bb 20 ff ff ff    	lea    -0xe0(%ebx),%edi
 8049faf:	8d 83 20 ff ff ff    	lea    -0xe0(%ebx),%eax
 8049fb5:	29 c7                	sub    %eax,%edi
 8049fb7:	c1 ff 02             	sar    $0x2,%edi
 8049fba:	85 ff                	test   %edi,%edi
 8049fbc:	74 24                	je     8049fe2 <__libc_csu_init+0x52>
 8049fbe:	31 f6                	xor    %esi,%esi
 8049fc0:	8b 45 10             	mov    0x10(%ebp),%eax
 8049fc3:	89 44 24 08          	mov    %eax,0x8(%esp)
 8049fc7:	8b 45 0c             	mov    0xc(%ebp),%eax
 8049fca:	89 44 24 04          	mov    %eax,0x4(%esp)
 8049fce:	8b 45 08             	mov    0x8(%ebp),%eax
 8049fd1:	89 04 24             	mov    %eax,(%esp)
 8049fd4:	ff 94 b3 20 ff ff ff 	call   *-0xe0(%ebx,%esi,4)
 8049fdb:	83 c6 01             	add    $0x1,%esi
 8049fde:	39 fe                	cmp    %edi,%esi
 8049fe0:	72 de                	jb     8049fc0 <__libc_csu_init+0x30>
 8049fe2:	83 c4 1c             	add    $0x1c,%esp
 8049fe5:	5b                   	pop    %ebx
 8049fe6:	5e                   	pop    %esi
 8049fe7:	5f                   	pop    %edi
 8049fe8:	5d                   	pop    %ebp
 8049fe9:	c3                   	ret    
 8049fea:	8d b6 00 00 00 00    	lea    0x0(%esi),%esi

08049ff0 <__libc_csu_fini>:
 8049ff0:	55                   	push   %ebp
 8049ff1:	89 e5                	mov    %esp,%ebp
 8049ff3:	5d                   	pop    %ebp
 8049ff4:	c3                   	ret    

08049ff5 <__i686.get_pc_thunk.bx>:
 8049ff5:	8b 1c 24             	mov    (%esp),%ebx
 8049ff8:	c3                   	ret    
 8049ff9:	90                   	nop
 8049ffa:	90                   	nop
 8049ffb:	90                   	nop
 8049ffc:	90                   	nop
 8049ffd:	90                   	nop
 8049ffe:	90                   	nop
 8049fff:	90                   	nop

0804a000 <__do_global_ctors_aux>:
 804a000:	55                   	push   %ebp
 804a001:	89 e5                	mov    %esp,%ebp
 804a003:	53                   	push   %ebx
 804a004:	83 ec 04             	sub    $0x4,%esp
 804a007:	a1 14 bf 04 08       	mov    0x804bf14,%eax
 804a00c:	83 f8 ff             	cmp    $0xffffffff,%eax
 804a00f:	74 13                	je     804a024 <__do_global_ctors_aux+0x24>
 804a011:	bb 14 bf 04 08       	mov    $0x804bf14,%ebx
 804a016:	66 90                	xchg   %ax,%ax
 804a018:	83 eb 04             	sub    $0x4,%ebx
 804a01b:	ff d0                	call   *%eax
 804a01d:	8b 03                	mov    (%ebx),%eax
 804a01f:	83 f8 ff             	cmp    $0xffffffff,%eax
 804a022:	75 f4                	jne    804a018 <__do_global_ctors_aux+0x18>
 804a024:	83 c4 04             	add    $0x4,%esp
 804a027:	5b                   	pop    %ebx
 804a028:	5d                   	pop    %ebp
 804a029:	c3                   	ret    
 804a02a:	90                   	nop
 804a02b:	90                   	nop

Disassembly of section .fini:

0804a02c <_fini>:
 804a02c:	55                   	push   %ebp
 804a02d:	89 e5                	mov    %esp,%ebp
 804a02f:	53                   	push   %ebx
 804a030:	83 ec 04             	sub    $0x4,%esp
 804a033:	e8 00 00 00 00       	call   804a038 <_fini+0xc>
 804a038:	5b                   	pop    %ebx
 804a039:	81 c3 bc 1f 00 00    	add    $0x1fbc,%ebx
 804a03f:	e8 0c ea ff ff       	call   8048a50 <__do_global_dtors_aux>
 804a044:	59                   	pop    %ecx
 804a045:	5b                   	pop    %ebx
 804a046:	c9                   	leave  
 804a047:	c3                   	ret    
